/*
 * Intel ACPI Component Architecture
 * AML/ASL+ Disassembler version 20230628 (64-bit version)
 * Copyright (c) 2000 - 2023 Intel Corporation
 * 
 * Disassembly of ./encoded/uefi.dat, Wed Feb 14 18:10:37 2024
 *
 * ACPI Data Table [UEFI]
 *
 * Format: [HexOffset DecimalOffset ByteLength]  FieldName : FieldValue (in hex)
 */

[000h 0000 004h]                   Signature : "UEFI"    [UEFI Boot Optimization Table]
[004h 0004 004h]                Table Length : 00000236
[008h 0008 001h]                    Revision : 01
[009h 0009 001h]                    Checksum : BF
[00Ah 0010 006h]                      Oem ID : "LENOVO"
[010h 0016 008h]                Oem Table ID : "CB-01   "
[018h 0024 004h]                Oem Revision : 00000001
[01Ch 0028 004h]             Asl Compiler ID : "ACPI"
[020h 0032 004h]       Asl Compiler Revision : 00040000

[024h 0036 010h]             UUID Identifier : 9D4BF935-A674-4710-BA02-BF0AA1758C7B
[034h 0052 002h]                 Data Offset : 0036

Raw Table Data: Length 566 (0x236)

    0000: 55 45 46 49 36 02 00 00 01 BF 4C 45 4E 4F 56 4F  // UEFI6.....LENOVO
    0010: 43 42 2D 30 31 20 20 20 01 00 00 00 41 43 50 49  // CB-01   ....ACPI
    0020: 00 00 04 00 35 F9 4B 9D 74 A6 10 47 BA 02 BF 0A  // ....5.K.t..G....
    0030: A1 75 8C 7B 36 00 24 42 56 44 54 24 00 00 00 24  // .u.{6.$BVDT$...$
    0040: 00 00 00 24 4E 33 43 4E 32 39 57 57 5F 54 44 50  // ...$N3CN29WW_TDP
    0050: 30 32 00 00 00 00 00 00 00 00 00 00 24 4D 41 59  // 02..........$MAY
    0060: 41 4E 2D 50 48 4F 45 4E 49 58 00 00 00 00 00 00  // AN-PHOENIX......
    0070: 00 00 00 00 00 00 24 30 35 2E 35 32 2E 34 36 00  // ......$05.52.46.
    0080: 00 00 00 00 00 00 00 00 00 00 00 00 00 00 00 00  // ................
    0090: 00 00 00 00 00 00 00 00 00 00 00 00 FF FF FF FF  // ................
    00A0: FF FF FF FF FF FF FF FF FF FF FF FF FF FF FF FF  // ................
    00B0: FF FF FF FF FF FF FF FF FF FF FF FF FF FF FF FF  // ................
    00C0: FF FF FF FF FF FF FF FF FF FF FF FF FF FF FF FF  // ................
    00D0: FF FF FF FF FF FF FF FF FF FF FF FF FF FF FF FF  // ................
    00E0: FF FF FF FF FF FF FF FF FF FF FF FF FF FF FF FF  // ................
    00F0: FF FF FF FF FF FF FF FF FF FF FF FF FF FF FF FF  // ................
    0100: FF FF FF FF FF FF FF FF FF FF FF FF FF FF FF FF  // ................
    0110: FF FF FF FF FF FF FF FF FF FF FF FF FF FF FF FF  // ................
    0120: FF FF FF FF FF FF FF FF FF FF FF FF FF FF FF FF  // ................
    0130: FF FF FF FF FF FF FF FF FF FF FF FF FF FF FF FF  // ................
    0140: FF FF FF FF FF FF FF FF FF FF FF FF FF FF FF FF  // ................
    0150: FF FF FF FF FF FF FF FF FF FF FF FF FF FF FF FF  // ................
    0160: FF FF FF FF FF 24 42 4D 45 24 00 90 F8 01 00 10  // .....$BME$......
    0170: 00 00 24 00 00 00 02 00 00 00 00 24 00 FF FF FF  // ..$........$....
    0180: FF FF FF FF FF 24 5F 4D 53 43 5F 56 45 52 3D 40  // .....$_MSC_VER=@
    0190: 06 24 52 44 41 54 45 24 02 04 24 45 53 52 54 29  // .$RDATE$..$ESRT)
    01A0: 00 00 00 95 7E 04 81 63 DC B7 CF C9 74 CF 89 79  // ....~..c....t..y
    01B0: A9 F0 65 8B 01 00 00 24 45 4E 44 4F 46 42 56 44  // ..e....$ENDOFBVD
    01C0: 54 FF FF FF FF FF FF FF FF FF FF FF FF FF FF FF  // T...............
    01D0: FF FF FF FF FF FF FF FF FF FF FF FF FF FF FF FF  // ................
    01E0: FF FF FF FF FF FF FF FF FF FF FF FF FF FF FF FF  // ................
    01F0: FF FF FF FF FF FF FF FF FF FF FF FF FF FF FF FF  // ................
    0200: FF FF FF FF FF FF FF FF FF FF FF FF FF FF FF FF  // ................
    0210: FF FF FF FF FF FF FF FF FF FF FF FF FF FF FF FF  // ................
    0220: FF FF FF FF FF FF FF FF FF FF FF FF FF FF FF FF  // ................
    0230: FF FF FF FF FF FF                                // ......
