/*
 * Intel ACPI Component Architecture
 * AML/ASL+ Disassembler version 20200717 (64-bit version)
 * Copyright (c) 2000 - 2020 Intel Corporation
 * 
 * Disassembly of ./encoded/uefi.dat, Wed Feb 21 23:56:42 2024
 *
 * ACPI Data Table [UEFI]
 *
 * Format: [HexOffset DecimalOffset ByteLength]  FieldName : FieldValue
 */

[000h 0000   4]                    Signature : "UEFI"    [UEFI Boot Optimization Table]
[004h 0004   4]                 Table Length : 00000236
[008h 0008   1]                     Revision : 01
[009h 0009   1]                     Checksum : CD
[00Ah 0010   6]                       Oem ID : "LENOVO"
[010h 0016   8]                 Oem Table ID : "CB-01   "
[018h 0024   4]                 Oem Revision : 00000001
[01Ch 0028   4]              Asl Compiler ID : "ACPI"
[020h 0032   4]        Asl Compiler Revision : 00040000

[024h 0036  16]              UUID Identifier : 9D4BF935-A674-4710-BA02-BF0AA1758C7B
[034h 0052   2]                  Data Offset : 0036

Raw Table Data: Length 566 (0x236)

    0000: 55 45 46 49 36 02 00 00 01 CD 4C 45 4E 4F 56 4F  // UEFI6.....LENOVO
    0010: 43 42 2D 30 31 20 20 20 01 00 00 00 41 43 50 49  // CB-01   ....ACPI
    0020: 00 00 04 00 35 F9 4B 9D 74 A6 10 47 BA 02 BF 0A  // ....5.K.t..G....
    0030: A1 75 8C 7B 36 00 24 42 56 44 54 24 00 00 00 24  // .u.{6.$BVDT$...$
    0040: 00 00 00 24 47 4B 43 4E 36 30 57 57 00 00 00 00  // ...$GKCN60WW....
    0050: 00 00 00 00 00 00 00 00 00 00 00 00 24 4C 65 67  // ............$Leg
    0060: 69 6F 6E 20 78 36 30 20 47 65 6E 20 41 4D 44 00  // ion x60 Gen AMD.
    0070: 00 00 00 00 00 00 24 30 35 2E 34 32 2E 33 37 00  // ......$05.42.37.
    0080: 00 00 00 00 00 00 00 00 00 00 00 00 00 00 00 00  // ................
    0090: 00 00 00 00 00 00 00 00 00 00 00 00 FF FF FF FF  // ................
    00A0: FF FF FF FF FF FF FF FF FF FF FF FF FF FF FF FF  // ................
    00B0: FF FF FF FF FF FF FF FF FF FF FF FF FF FF FF FF  // ................
    00C0: FF FF FF FF FF FF FF FF FF FF FF FF FF FF FF FF  // ................
    00D0: FF FF FF FF FF FF FF FF FF FF FF FF FF FF FF FF  // ................
    00E0: FF FF FF FF FF FF FF FF FF FF FF FF FF FF FF FF  // ................
    00F0: FF FF FF FF FF FF FF FF FF FF FF FF FF FF FF FF  // ................
    0100: FF FF FF FF FF FF FF FF FF FF FF FF FF FF FF FF  // ................
    0110: FF FF FF FF FF FF FF FF FF FF FF FF FF FF FF FF  // ................
    0120: FF FF FF FF FF FF FF FF FF FF FF FF FF FF FF FF  // ................
    0130: FF FF FF FF FF FF FF FF FF FF FF FF FF FF FF FF  // ................
    0140: FF FF FF FF FF FF FF FF FF FF FF FF FF FF FF FF  // ................
    0150: FF FF FF FF FF FF FF FF FF FF FF FF FF FF FF FF  // ................
    0160: FF FF FF FF FF 24 42 4D 45 24 00 90 EA 00 00 10  // .....$BME$......
    0170: 00 00 24 00 00 00 01 00 00 00 00 24 00 FF FF FF  // ..$........$....
    0180: FF FF FF FF FF 24 5F 4D 53 43 5F 56 45 52 3D 40  // .....$_MSC_VER=@
    0190: 06 24 52 44 41 54 45 23 03 07 24 45 53 52 54 60  // .$RDATE#..$ESRT`
    01A0: 40 37 60 90 DA CC 69 28 50 EE 0C 4D EA 72 B1 8F  // @7`...i(P..M.r..
    01B0: 08 D8 54 8B 01 00 00 24 45 4E 44 4F 46 42 56 44  // ..T....$ENDOFBVD
    01C0: 54 FF FF FF FF FF FF FF FF FF FF FF FF FF FF FF  // T...............
    01D0: FF FF FF FF FF FF FF FF FF FF FF FF FF FF FF FF  // ................
    01E0: FF FF FF FF FF FF FF FF FF FF FF FF FF FF FF FF  // ................
    01F0: FF FF FF FF FF FF FF FF FF FF FF FF FF FF FF FF  // ................
    0200: FF FF FF FF FF FF FF FF FF FF FF FF FF FF FF FF  // ................
    0210: FF FF FF FF FF FF FF FF FF FF FF FF FF FF FF FF  // ................
    0220: FF FF FF FF FF FF FF FF FF FF FF FF FF FF FF FF  // ................
    0230: FF FF FF FF FF FF                                // ......
