/*
 * Intel ACPI Component Architecture
 * AML/ASL+ Disassembler version 20240927 (64-bit version)
 * Copyright (c) 2000 - 2023 Intel Corporation
 * 
 * Disassembly of ./encoded/vfct.dat
 *
 * ACPI Data Table [VFCT]
 *
 * Format: [HexOffset DecimalOffset ByteLength]  FieldName : FieldValue (in hex)
 */

[000h 0000 004h]                   Signature : "VFCT"    
[004h 0004 004h]                Table Length : 00004484
[008h 0008 001h]                    Revision : 01
[009h 0009 001h]                    Checksum : 31
[00Ah 0010 006h]                      Oem ID : "_ASUS_"
[010h 0016 008h]                Oem Table ID : "Notebook"
[018h 0024 004h]                Oem Revision : 00000001
[01Ch 0028 004h]             Asl Compiler ID : "AMD "
[020h 0032 004h]       Asl Compiler Revision : 33504F47


**** Unknown ACPI table signature [VFCT]


Raw Table Data: Length 17540 (0x4484)

    0000: 56 46 43 54 84 44 00 00 01 31 5F 41 53 55 53 5F  // VFCT.D...1_ASUS_
    0010: 4E 6F 74 65 62 6F 6F 6B 01 00 00 00 41 4D 44 20  // Notebook....AMD 
    0020: 47 4F 50 33 32 9B A3 5D BD C6 CF 49 95 A6 E8 E4  // GOP32..]...I....
    0030: 2E CD 79 A7 4C 00 00 00 00 00 00 00 00 00 00 00  // ..y.L...........
    0040: 00 00 00 00 00 00 00 00 00 00 00 00 C4 00 00 00  // ................
    0050: 00 00 00 00 00 00 00 00 02 10 86 15 00 00 00 00  // ................
    0060: 01 00 00 00 00 44 00 00 55 AA 22 00 00 00 00 00  // .....D..U.".....
    0070: 00 00 00 00 00 00 00 00 00 00 00 00 00 00 00 00  // ................
    0080: BC 01 00 00 00 00 49 42 4D 75 00 00 00 00 00 00  // ......IBMu......
    0090: 00 00 00 00 00 00 00 04 20 37 36 31 32 39 35 35  // ........ 7612955
    00A0: 32 30 00 00 00 00 00 00 00 00 00 00 00 00 00 00  // 20..............
    00B0: 90 01 00 00 00 00 00 00 30 36 2F 31 37 2F 32 34  // ........06/17/24
    00C0: 2C 30 32 3A 30 38 3A 30 32 00 00 00 00 00 00 00  // ,02:08:02.......
    00D0: 00 00 00 00 00 00 80 00 00 00 00 00 00 00 00 00  // ................
    00E0: 00 00 00 00 00 00 00 00 31 31 33 2D 53 54 52 58  // ........113-STRX
    00F0: 4C 47 45 4E 2D 30 30 31 00 53 54 58 48 4C 00 50  // LGEN-001.STXHL.P
    0100: 43 49 5F 45 58 50 52 45 53 53 00 44 44 52 35 00  // CI_EXPRESS.DDR5.
    0110: 0D 0A 41 4D 44 20 53 54 52 49 58 5F 48 41 4C 4F  // ..AMD STRIX_HALO
    0120: 5F 47 45 4E 45 52 49 43 20 20 20 20 20 20 20 20  // _GENERIC        
    0130: 20 20 20 20 20 20 20 20 20 20 20 20 20 20 20 20  //                 
    0140: 20 20 20 20 20 20 20 20 20 20 20 20 20 20 20 20  //                 
    0150: 20 20 20 20 20 20 20 20 20 20 20 20 20 20 0D 0A  //               ..
    0160: 00 0D 0A 20 0D 0A 00 28 43 29 20 31 39 38 38 2D  // ... ...(C) 1988-
    0170: 32 30 32 32 2C 20 41 64 76 61 6E 63 65 64 20 4D  // 2022, Advanced M
    0180: 69 63 72 6F 20 44 65 76 69 63 65 73 2C 20 49 6E  // icro Devices, In
    0190: 63 2E 00 41 54 4F 4D 42 49 4F 53 42 4B 2D 41 4D  // c..ATOMBIOSBK-AM
    01A0: 44 20 56 45 52 30 32 33 2E 30 31 31 2E 30 30 30  // D VER023.011.000
    01B0: 2E 30 33 39 2E 30 30 30 30 30 31 00 53 54 58 48  // .039.000001.STXH
    01C0: 4C 2E 62 69 6E 20 20 20 00 30 30 30 30 30 30 30  // L.bin   .0000000
    01D0: 30 00 30 30 31 30 37 39 36 32 00 20 20 20 20 20  // 0.00107962.     
    01E0: 20 20 20 00 53 54 52 49 58 5F 48 41 4C 4F 5F 47  //    .STRIX_HALO_G
    01F0: 45 4E 45 52 49 43 00 00 2C 00 02 03 41 54 4F 4D  // ENERIC..,...ATOM
    0200: 00 00 00 00 54 01 E1 01 A8 00 00 00 00 00 00 00  // ....T...........
    0210: 02 10 02 10 BC 01 B0 3A 00 03 00 00 00 00 00 00  // .......:........
    0220: 00 09 03 00 50 43 49 52 02 10 86 15 00 00 18 00  // ....PCIR........
    0230: 00 00 00 03 22 00 0B 17 00 80 00 00 41 4D 44 20  // ....".......AMD 
    0240: 41 54 4F 4D 42 49 4F 53 00 5B 44 74 74 00 00 00  // ATOMBIOS.[Dtt...
    0250: 00 00 00 00 00 00 00 00 00 00 00 00 00 00 00 00  // ................
    0260: 00 00 00 00 00 00 00 00 00 00 00 00 00 00 00 00  // ................
    0270: 00 00 00 00 00 00 00 00 00 00 00 00 00 00 00 00  // ................
    0280: 00 00 00 00 00 00 00 00 00 00 00 00 00 00 00 00  // ................
    0290: 00 00 00 00 00 00 00 00 00 00 00 00 00 00 00 00  // ................
    02A0: 00 00 00 00 00 00 00 00 00 00 00 00 00 00 00 00  // ................
    02B0: 00 00 00 00 00 00 00 00 00 00 00 00 00 00 00 00  // ................
    02C0: 00 00 00 00 00 00 00 00 00 00 00 00 00 00 00 00  // ................
    02D0: 00 00 00 00 00 00 00 00 00 00 00 00 00 00 00 00  // ................
    02E0: 00 00 00 00 00 00 00 00 00 00 00 00 00 00 00 00  // ................
    02F0: 00 00 00 00 00 00 00 00 00 00 00 00 00 00 00 00  // ................
    0300: 00 00 00 00 00 00 00 00 00 00 00 00 00 00 00 00  // ................
    0310: 00 00 00 00 00 00 00 00 00 00 00 00 00 00 00 00  // ................
    0320: 00 00 00 00 00 00 00 00 00 00 00 00 00 00 00 00  // ................
    0330: 00 00 00 00 00 00 00 00 00 00 00 00 00 00 00 00  // ................
    0340: 00 00 00 00 00 00 00 00 00 00 00 00 00 00 00 00  // ................
    0350: 00 00 00 00 00 00 00 00 00 00 00 00 00 00 00 00  // ................
    0360: 00 00 00 00 00 00 00 00 4A 00 02 01 00 00 00 00  // ........J.......
    0370: 00 00 58 37 BC 39 00 00 00 30 4C 03 00 00 00 00  // ..X7.9...0L.....
    0380: 00 00 8C 39 24 31 C8 38 28 3A 00 00 00 00 6C 39  // ...9$1.8(:....l9
    0390: 00 00 00 00 00 00 00 00 44 36 50 37 00 00 84 05  // ........D6P7....
    03A0: 78 35 50 30 00 00 00 00 78 31 00 00 00 00 00 00  // x5P0....x1......
    03B0: 00 00 00 00 38 02 05 04 10 00 38 00 7C 00 90 01  // ....8.....8.|...
    03C0: D8 01 48 00 30 75 00 00 0C 00 0F 05 3E 00 00 00  // ..H.0u......>...
    03D0: 40 9C 00 00 0C 00 0F 05 3E 00 00 00 FF FF FF 00  // @.......>.......
    03E0: 0C 00 0F 05 77 21 00 00 00 00 00 00 FF FF FF 00  // ....w!..........
    03F0: 0C 00 0F 04 3E 00 00 00 00 00 00 00 0A 8B 02 00  // ....>...........
    0400: 0C 00 0F 04 3E 00 00 00 15 16 05 00 0C 00 0F 04  // ....>...........
    0410: 3E 00 00 00 1C C8 06 00 0C 00 0F 04 3E 00 00 00  // >...........>...
    0420: 23 7A 08 00 0C 00 0F 04 3E 00 00 00 00 00 00 00  // #z......>.......
    0430: 48 3F 00 00 0F 00 44 00 00 16 00 00 00 04 01 1F  // H?....D.........
    0440: 00 00 00 04 02 2C 00 00 00 04 03 3E 00 00 00 04  // .....,.....>....
    0450: 08 1B 50 00 00 04 09 25 60 00 00 04 0A 35 90 00  // ..P....%`....5..
    0460: 00 04 10 21 B0 00 00 04 11 2F F0 00 00 04 18 2A  // ...!...../.....*
    0470: 40 01 00 04 78 69 00 00 0F 00 44 00 00 16 00 00  // @...xi....D.....
    0480: 00 04 01 1F 00 00 00 04 02 2C 00 00 00 04 03 3E  // .........,.....>
    0490: 00 00 00 04 08 1B 50 00 00 04 09 25 60 00 00 04  // ......P....%`...
    04A0: 0A 35 90 00 00 04 10 21 B0 00 00 04 11 2F F0 00  // .5.....!...../..
    04B0: 00 04 18 2A 40 01 00 04 F0 D2 00 00 0F 00 44 00  // ...*@.........D.
    04C0: 00 1D 00 00 00 04 01 26 00 00 00 04 02 30 00 00  // .......&.....0..
    04D0: 00 04 03 3E 00 00 00 04 08 22 40 00 00 04 09 2C  // ...>....."@....,
    04E0: 60 00 00 04 0A 37 70 00 00 04 10 27 90 00 00 04  // `....7p....'....
    04F0: 11 32 C0 00 00 04 18 2E 00 01 00 04 68 3C 01 00  // .2..........h<..
    0500: 0F 00 44 00 00 1D 00 00 00 04 01 26 00 00 00 04  // ..D........&....
    0510: 02 30 00 00 00 04 03 3E 00 00 00 04 08 22 40 00  // .0.....>....."@.
    0520: 00 04 09 2C 60 00 00 04 0A 37 70 00 00 04 10 27  // ...,`....7p....'
    0530: 90 00 00 04 11 32 C0 00 00 04 18 2E 00 01 00 04  // .....2..........
    0540: 00 00 00 00 00 01 02 03 00 01 02 03 00 07 05 00  // ................
    0550: 00 01 02 03 00 01 02 03 00 07 05 00 00 01 02 03  // ................
    0560: 00 01 02 03 00 07 05 00 00 01 02 03 00 01 02 03  // ................
    0570: 00 07 05 00 00 01 02 03 00 01 02 03 00 07 05 00  // ................
    0580: 00 01 02 03 00 01 02 03 00 07 05 00 08 30 00 00  // .............0..
    0590: 87 00 00 00 07 30 00 00 B2 25 00 00 08 31 00 00  // .....0...%...1..
    05A0: 87 00 00 00 07 31 00 00 B2 25 00 00 08 32 00 00  // .....1...%...2..
    05B0: 87 00 00 00 07 32 00 00 B2 25 00 00 08 33 00 00  // .....2...%...3..
    05C0: 87 00 00 00 07 33 00 00 B2 25 00 00 56 00 00 00  // .....3...%..V...
    05D0: 05 00 00 00 46 00 00 00 30 00 00 00 50 00 00 00  // ....F...0...P...
    05E0: 30 00 00 00 FF FF FF FF 00 00 00 00 FC 13 01 02  // 0...............
    05F0: 00 1F 18 00 00 00 00 00 48 3F 00 00 05 02 00 07  // ........H?......
    0600: 03 00 00 2A 14 00 00 00 00 00 00 00 00 00 00 00  // ...*............
    0610: 00 00 00 00 00 1F 10 00 00 00 00 00 48 3F 00 00  // ............H?..
    0620: 05 02 00 07 03 00 00 21 0B 00 00 00 00 00 00 00  // .......!........
    0630: 00 00 00 00 00 00 00 00 00 1F 0A 00 00 00 00 00  // ................
    0640: 48 3F 00 00 05 02 00 07 03 00 00 34 0A 00 00 00  // H?.........4....
    0650: 00 00 00 00 00 00 00 00 00 00 00 00 00 1F 09 00  // ................
    0660: 00 00 00 00 48 3F 00 00 05 02 00 07 03 00 00 25  // ....H?.........%
    0670: 06 00 00 00 00 00 00 00 00 00 00 00 00 00 00 00  // ................
    0680: 00 1F 02 00 00 00 00 00 48 3F 00 00 05 02 00 07  // ........H?......
    0690: 03 00 00 2A 00 00 00 00 00 00 00 00 00 00 00 00  // ...*............
    06A0: 00 00 00 00 00 1F 01 00 00 00 00 00 48 3F 00 00  // ............H?..
    06B0: 05 02 00 07 03 00 00 1F 00 00 00 00 00 00 00 00  // ................
    06C0: 00 00 00 00 00 00 00 00 00 1F 03 00 00 00 00 00  // ................
    06D0: 48 3F 00 00 05 02 00 07 03 00 00 3E 00 00 00 00  // H?.........>....
    06E0: 00 00 00 00 00 00 00 00 00 00 00 00 00 1F 11 00  // ................
    06F0: 00 00 00 00 48 3F 00 00 05 02 00 07 03 00 00 2F  // ....H?........./
    0700: 0F 00 00 00 00 00 00 00 00 00 00 00 00 00 00 00  // ................
    0710: 00 1F 08 00 00 00 00 00 48 3F 00 00 05 02 00 07  // ........H?......
    0720: 03 00 00 1B 05 00 00 00 00 00 00 00 00 00 00 00  // ................
    0730: 00 00 00 00 00 1F 00 00 00 00 00 00 48 3F 00 00  // ............H?..
    0740: 05 02 00 07 03 00 00 16 00 00 00 00 00 00 00 00  // ................
    0750: 00 00 00 00 00 00 00 00 00 1F 0A 00 00 00 00 00  // ................
    0760: 60 54 00 00 05 02 00 07 03 00 00 37 07 00 00 00  // `T.........7....
    0770: 00 00 00 00 00 00 00 00 00 00 00 00 00 1F 08 00  // ................
    0780: 00 00 00 00 60 54 00 00 05 02 00 07 03 00 00 22  // ....`T........."
    0790: 04 00 00 00 00 00 00 00 00 00 00 00 00 00 00 00  // ................
    07A0: 00 1F 00 00 00 00 00 00 60 54 00 00 05 02 00 07  // ........`T......
    07B0: 03 00 00 1E 00 00 00 00 00 00 00 00 00 00 00 00  // ................
    07C0: 00 00 00 00 00 1F 01 00 00 00 00 00 60 54 00 00  // ............`T..
    07D0: 05 02 00 07 03 00 00 26 00 00 00 00 00 00 00 00  // .......&........
    07E0: 00 00 00 00 00 00 00 00 00 1F 02 00 00 00 00 00  // ................
    07F0: 60 54 00 00 05 02 00 07 03 00 00 30 00 00 00 00  // `T.........0....
    0800: 00 00 00 00 00 00 00 00 00 00 00 00 00 1F 03 00  // ................
    0810: 00 00 00 00 60 54 00 00 05 02 00 07 03 00 00 3E  // ....`T.........>
    0820: 00 00 00 00 00 00 00 00 00 00 00 00 00 00 00 00  // ................
    0830: 00 1F 18 00 00 00 00 00 60 54 00 00 05 02 00 07  // ........`T......
    0840: 03 00 00 2E 10 00 00 00 00 00 00 00 00 00 00 00  // ................
    0850: 00 00 00 00 00 1F 11 00 00 00 00 00 60 54 00 00  // ............`T..
    0860: 05 02 00 07 03 00 00 32 0C 00 00 00 00 00 00 00  // .......2........
    0870: 00 00 00 00 00 00 00 00 00 1F 10 00 00 00 00 00  // ................
    0880: 60 54 00 00 05 02 00 07 03 00 00 27 09 00 00 00  // `T.........'....
    0890: 00 00 00 00 00 00 00 00 00 00 00 00 00 1F 09 00  // ................
    08A0: 00 00 00 00 60 54 00 00 05 02 00 07 03 00 00 2C  // ....`T.........,
    08B0: 06 00 00 00 00 00 00 00 00 00 00 00 00 00 00 00  // ................
    08C0: 00 1F 09 00 00 00 00 00 EC 5E 00 00 05 02 00 07  // .........^......
    08D0: 03 00 00 2C 06 00 00 00 00 00 00 00 00 00 00 00  // ...,............
    08E0: 00 00 00 00 00 1F 03 00 00 00 00 00 EC 5E 00 00  // .............^..
    08F0: 05 02 00 07 03 00 00 3E 00 00 00 00 00 00 00 00  // .......>........
    0900: 00 00 00 00 00 00 00 00 00 1F 10 00 00 00 00 00  // ................
    0910: EC 5E 00 00 05 02 00 07 03 00 00 27 09 00 00 00  // .^.........'....
    0920: 00 00 00 00 00 00 00 00 00 00 00 00 00 1F 18 00  // ................
    0930: 00 00 00 00 EC 5E 00 00 05 02 00 07 03 00 00 2E  // .....^..........
    0940: 10 00 00 00 00 00 00 00 00 00 00 00 00 00 00 00  // ................
    0950: 00 1F 0A 00 00 00 00 00 EC 5E 00 00 05 02 00 07  // .........^......
    0960: 03 00 00 37 07 00 00 00 00 00 00 00 00 00 00 00  // ...7............
    0970: 00 00 00 00 00 1F 11 00 00 00 00 00 EC 5E 00 00  // .............^..
    0980: 05 02 00 07 03 00 00 32 0C 00 00 00 00 00 00 00  // .......2........
    0990: 00 00 00 00 00 00 00 00 00 1F 01 00 00 00 00 00  // ................
    09A0: EC 5E 00 00 05 02 00 07 03 00 00 26 00 00 00 00  // .^.........&....
    09B0: 00 00 00 00 00 00 00 00 00 00 00 00 00 1F 02 00  // ................
    09C0: 00 00 00 00 EC 5E 00 00 05 02 00 07 03 00 00 30  // .....^.........0
    09D0: 00 00 00 00 00 00 00 00 00 00 00 00 00 00 00 00  // ................
    09E0: 00 1F 00 00 00 00 00 00 EC 5E 00 00 05 02 00 07  // .........^......
    09F0: 03 00 00 1E 00 00 00 00 00 00 00 00 00 00 00 00  // ................
    0A00: 00 00 00 00 00 1F 08 00 00 00 00 00 EC 5E 00 00  // .............^..
    0A10: 05 02 00 07 03 00 00 22 04 00 00 00 00 00 00 00  // ......."........
    0A20: 00 00 00 00 00 00 00 00 00 1F 00 00 00 00 00 00  // ................
    0A30: 78 69 00 00 05 02 00 07 03 00 00 16 00 00 00 00  // xi..............
    0A40: 00 00 00 00 00 00 00 00 00 00 00 00 00 1F 0A 00  // ................
    0A50: 00 00 00 00 78 69 00 00 05 02 00 07 03 00 00 34  // ....xi.........4
    0A60: 0A 00 00 00 00 00 00 00 00 00 00 00 00 00 00 00  // ................
    0A70: 00 1F 01 00 00 00 00 00 78 69 00 00 05 02 00 07  // ........xi......
    0A80: 03 00 00 1F 00 00 00 00 00 00 00 00 00 00 00 00  // ................
    0A90: 00 00 00 00 00 1F 18 00 00 00 00 00 78 69 00 00  // ............xi..
    0AA0: 05 02 00 07 03 00 00 2A 14 00 00 00 00 00 00 00  // .......*........
    0AB0: 00 00 00 00 00 00 00 00 00 1F 09 00 00 00 00 00  // ................
    0AC0: 78 69 00 00 05 02 00 07 03 00 00 25 06 00 00 00  // xi.........%....
    0AD0: 00 00 00 00 00 00 00 00 00 00 00 00 00 1F 10 00  // ................
    0AE0: 00 00 00 00 78 69 00 00 05 02 00 07 03 00 00 21  // ....xi.........!
    0AF0: 0B 00 00 00 00 00 00 00 00 00 00 00 00 00 00 00  // ................
    0B00: 00 1F 11 00 00 00 00 00 78 69 00 00 05 02 00 07  // ........xi......
    0B10: 03 00 00 2F 0F 00 00 00 00 00 00 00 00 00 00 00  // .../............
    0B20: 00 00 00 00 00 1F 02 00 00 00 00 00 78 69 00 00  // ............xi..
    0B30: 05 02 00 07 03 00 00 2A 00 00 00 00 00 00 00 00  // .......*........
    0B40: 00 00 00 00 00 00 00 00 00 1F 08 00 00 00 00 00  // ................
    0B50: 78 69 00 00 05 02 00 07 03 00 00 1B 05 00 00 00  // xi..............
    0B60: 00 00 00 00 00 00 00 00 00 00 00 00 00 1F 03 00  // ................
    0B70: 00 00 00 00 78 69 00 00 05 02 00 07 03 00 00 3E  // ....xi.........>
    0B80: 00 00 00 00 00 00 00 00 00 00 00 00 00 00 00 00  // ................
    0B90: 04 1F 02 01 00 00 00 00 30 75 00 00 05 02 00 07  // ........0u......
    0BA0: 03 00 05 2C 0D 00 00 00 00 00 00 00 00 00 00 00  // ...,............
    0BB0: 00 00 00 00 03 1F 00 01 00 00 00 00 30 75 00 00  // ............0u..
    0BC0: 05 02 00 07 03 00 00 3E 00 00 00 00 00 00 00 00  // .......>........
    0BD0: 00 00 00 00 00 00 00 00 02 1F 00 00 00 00 00 00  // ................
    0BE0: 30 75 00 00 05 02 00 07 00 00 00 3E 00 00 00 00  // 0u.........>....
    0BF0: 00 00 00 00 00 00 00 00 00 00 00 00 04 1F 01 01  // ................
    0C00: 00 00 00 00 30 75 00 00 05 02 00 07 03 00 05 2F  // ....0u........./
    0C10: 0A 00 00 00 00 00 00 00 00 00 00 00 00 00 00 00  // ................
    0C20: 04 1F 00 01 00 00 00 00 30 75 00 00 05 02 00 07  // ........0u......
    0C30: 03 00 05 31 08 00 00 00 00 00 00 00 00 00 00 00  // ...1............
    0C40: 00 00 00 00 04 1F 03 01 00 00 00 00 30 75 00 00  // ............0u..
    0C50: 05 02 00 07 03 00 05 29 10 00 00 00 00 00 00 00  // .......)........
    0C60: 00 00 00 00 00 00 00 00 00 1F 18 00 00 00 00 00  // ................
    0C70: 90 7E 00 00 05 02 00 07 03 00 00 2E 10 00 00 00  // .~..............
    0C80: 00 00 00 00 00 00 00 00 00 00 00 00 00 1F 00 00  // ................
    0C90: 00 00 00 00 90 7E 00 00 05 02 00 07 03 00 00 1E  // .....~..........
    0CA0: 00 00 00 00 00 00 00 00 00 00 00 00 00 00 00 00  // ................
    0CB0: 00 1F 01 00 00 00 00 00 90 7E 00 00 05 02 00 07  // .........~......
    0CC0: 03 00 00 26 00 00 00 00 00 00 00 00 00 00 00 00  // ...&............
    0CD0: 00 00 00 00 00 1F 0A 00 00 00 00 00 90 7E 00 00  // .............~..
    0CE0: 05 02 00 07 03 00 00 37 07 00 00 00 00 00 00 00  // .......7........
    0CF0: 00 00 00 00 00 00 00 00 00 1F 11 00 00 00 00 00  // ................
    0D00: 90 7E 00 00 05 02 00 07 03 00 00 32 0C 00 00 00  // .~.........2....
    0D10: 00 00 00 00 00 00 00 00 00 00 00 00 00 1F 10 00  // ................
    0D20: 00 00 00 00 90 7E 00 00 05 02 00 07 03 00 00 27  // .....~.........'
    0D30: 09 00 00 00 00 00 00 00 00 00 00 00 00 00 00 00  // ................
    0D40: 00 1F 09 00 00 00 00 00 90 7E 00 00 05 02 00 07  // .........~......
    0D50: 03 00 00 2C 06 00 00 00 00 00 00 00 00 00 00 00  // ...,............
    0D60: 00 00 00 00 00 1F 08 00 00 00 00 00 90 7E 00 00  // .............~..
    0D70: 05 02 00 07 03 00 00 22 04 00 00 00 00 00 00 00  // ......."........
    0D80: 00 00 00 00 00 00 00 00 00 1F 02 00 00 00 00 00  // ................
    0D90: 90 7E 00 00 05 02 00 07 03 00 00 30 00 00 00 00  // .~.........0....
    0DA0: 00 00 00 00 00 00 00 00 00 00 00 00 00 1F 03 00  // ................
    0DB0: 00 00 00 00 90 7E 00 00 05 02 00 07 03 00 00 3E  // .....~.........>
    0DC0: 00 00 00 00 00 00 00 00 00 00 00 00 00 00 00 00  // ................
    0DD0: 03 1F 00 01 00 00 00 00 40 9C 00 00 05 02 00 07  // ........@.......
    0DE0: 03 00 00 3E 00 00 00 00 00 00 00 00 00 00 00 00  // ...>............
    0DF0: 00 00 00 00 02 1F 00 00 00 00 00 00 40 9C 00 00  // ............@...
    0E00: 05 02 00 07 00 00 00 3E 00 00 00 00 00 00 00 00  // .......>........
    0E10: 00 00 00 00 00 00 00 00 00 1F 09 00 00 00 00 00  // ................
    0E20: C0 A8 00 00 05 02 00 07 03 00 00 2C 06 00 00 00  // ...........,....
    0E30: 00 00 00 00 00 00 00 00 00 00 00 00 00 1F 00 00  // ................
    0E40: 00 00 00 00 C0 A8 00 00 05 02 00 07 03 00 00 1E  // ................
    0E50: 00 00 00 00 00 00 00 00 00 00 00 00 00 00 00 00  // ................
    0E60: 00 1F 08 00 00 00 00 00 C0 A8 00 00 05 02 00 07  // ................
    0E70: 03 00 00 22 04 00 00 00 00 00 00 00 00 00 00 00  // ..."............
    0E80: 00 00 00 00 00 1F 18 00 00 00 00 00 C0 A8 00 00  // ................
    0E90: 05 02 00 07 03 00 00 2E 10 00 00 00 00 00 00 00  // ................
    0EA0: 00 00 00 00 00 00 00 00 00 1F 0A 00 00 00 00 00  // ................
    0EB0: C0 A8 00 00 05 02 00 07 03 00 00 37 07 00 00 00  // ...........7....
    0EC0: 00 00 00 00 00 00 00 00 00 00 00 00 00 1F 01 00  // ................
    0ED0: 00 00 00 00 C0 A8 00 00 05 02 00 07 03 00 00 26  // ...............&
    0EE0: 00 00 00 00 00 00 00 00 00 00 00 00 00 00 00 00  // ................
    0EF0: 00 1F 02 00 00 00 00 00 C0 A8 00 00 05 02 00 07  // ................
    0F00: 03 00 00 30 00 00 00 00 00 00 00 00 00 00 00 00  // ...0............
    0F10: 00 00 00 00 00 1F 03 00 00 00 00 00 C0 A8 00 00  // ................
    0F20: 05 02 00 07 03 00 00 3E 00 00 00 00 00 00 00 00  // .......>........
    0F30: 00 00 00 00 00 00 00 00 00 1F 10 00 00 00 00 00  // ................
    0F40: C0 A8 00 00 05 02 00 07 03 00 00 27 09 00 00 00  // ...........'....
    0F50: 00 00 00 00 00 00 00 00 00 00 00 00 00 1F 11 00  // ................
    0F60: 00 00 00 00 C0 A8 00 00 05 02 00 07 03 00 00 32  // ...............2
    0F70: 0C 00 00 00 00 00 00 00 00 00 00 00 00 00 00 00  // ................
    0F80: 00 1F 0A 00 00 00 00 00 F0 D2 00 00 05 02 00 07  // ................
    0F90: 03 00 00 36 08 00 00 00 00 00 00 00 00 00 00 00  // ...6............
    0FA0: 00 00 00 00 00 1F 01 00 00 00 00 00 F0 D2 00 00  // ................
    0FB0: 05 02 00 07 03 00 00 26 00 00 00 00 00 00 00 00  // .......&........
    0FC0: 00 00 00 00 00 00 00 00 00 1F 08 00 00 00 00 00  // ................
    0FD0: F0 D2 00 00 05 02 00 07 03 00 00 22 04 00 00 00  // ..........."....
    0FE0: 00 00 00 00 00 00 00 00 00 00 00 00 00 1F 03 00  // ................
    0FF0: 00 00 00 00 F0 D2 00 00 05 02 00 07 03 00 00 3E  // ...............>
    1000: 00 00 00 00 00 00 00 00 00 00 00 00 00 00 00 00  // ................
    1010: 00 1F 02 00 00 00 00 00 F0 D2 00 00 05 02 00 07  // ................
    1020: 03 00 00 2E 00 00 00 00 00 00 00 00 00 00 00 00  // ................
    1030: 00 00 00 00 00 1F 18 00 00 00 00 00 F0 D2 00 00  // ................
    1040: 05 02 00 07 03 00 00 2E 10 00 00 00 00 00 00 00  // ................
    1050: 00 00 00 00 00 00 00 00 00 1F 10 00 00 00 00 00  // ................
    1060: F0 D2 00 00 05 02 00 07 03 00 00 27 09 00 00 00  // ...........'....
    1070: 00 00 00 00 00 00 00 00 00 00 00 00 00 1F 09 00  // ................
    1080: 00 00 00 00 F0 D2 00 00 05 02 00 07 03 00 00 2C  // ...............,
    1090: 06 00 00 00 00 00 00 00 00 00 00 00 00 00 00 00  // ................
    10A0: 00 1F 11 00 00 00 00 00 F0 D2 00 00 05 02 00 07  // ................
    10B0: 03 00 00 32 0C 00 00 00 00 00 00 00 00 00 00 00  // ...2............
    10C0: 00 00 00 00 00 1F 00 00 00 00 00 00 F0 D2 00 00  // ................
    10D0: 05 02 00 07 03 00 00 1D 00 00 00 00 00 00 00 00  // ................
    10E0: 00 00 00 00 00 00 00 00 03 1F 00 00 00 00 00 00  // ................
    10F0: 60 EA 00 00 05 02 00 04 03 00 00 3E 00 00 00 00  // `..........>....
    1100: 00 00 00 00 00 00 00 00 00 00 00 00 02 1F 00 00  // ................
    1110: 00 00 00 00 60 EA 00 00 05 02 00 07 00 00 00 3E  // ....`..........>
    1120: 00 00 00 00 00 00 00 00 00 00 00 00 00 00 00 00  // ................
    1130: 04 1F 03 01 00 00 00 00 60 EA 00 00 05 02 00 07  // ........`.......
    1140: 03 00 05 29 10 00 00 00 00 00 00 00 00 00 00 00  // ...)............
    1150: 00 00 00 00 04 1F 02 01 00 00 00 00 60 EA 00 00  // ............`...
    1160: 05 02 00 07 03 00 05 2C 0D 00 00 00 00 00 00 00  // .......,........
    1170: 00 00 00 00 00 00 00 00 04 1F 01 01 00 00 00 00  // ................
    1180: 60 EA 00 00 05 02 00 07 03 00 05 2F 0A 00 00 00  // `........../....
    1190: 00 00 00 00 00 00 00 00 00 00 00 00 04 1F 00 01  // ................
    11A0: 00 00 00 00 60 EA 00 00 05 02 00 07 03 00 05 31  // ....`..........1
    11B0: 08 00 00 00 00 00 00 00 00 00 00 00 00 00 00 00  // ................
    11C0: 00 1F 02 00 00 00 00 00 20 FD 00 00 05 02 00 07  // ........ .......
    11D0: 03 00 00 30 00 00 00 00 00 00 00 00 00 00 00 00  // ...0............
    11E0: 00 00 00 00 00 1F 01 00 00 00 00 00 20 FD 00 00  // ............ ...
    11F0: 05 02 00 07 03 00 00 26 00 00 00 00 00 00 00 00  // .......&........
    1200: 00 00 00 00 00 00 00 00 00 1F 00 00 00 00 00 00  // ................
    1210: 20 FD 00 00 05 02 00 07 03 00 00 1E 00 00 00 00  //  ...............
    1220: 00 00 00 00 00 00 00 00 00 00 00 00 00 1F 03 00  // ................
    1230: 00 00 00 00 20 FD 00 00 05 02 00 07 03 00 00 3E  // .... ..........>
    1240: 00 00 00 00 00 00 00 00 00 00 00 00 00 00 00 00  // ................
    1250: 00 1F 0A 00 00 00 00 00 20 FD 00 00 05 02 00 07  // ........ .......
    1260: 03 00 00 37 07 00 00 00 00 00 00 00 00 00 00 00  // ...7............
    1270: 00 00 00 00 00 1F 18 00 00 00 00 00 20 FD 00 00  // ............ ...
    1280: 05 02 00 07 03 00 00 2E 10 00 00 00 00 00 00 00  // ................
    1290: 00 00 00 00 00 00 00 00 00 1F 09 00 00 00 00 00  // ................
    12A0: 20 FD 00 00 05 02 00 07 03 00 00 2C 06 00 00 00  //  ..........,....
    12B0: 00 00 00 00 00 00 00 00 00 00 00 00 00 1F 10 00  // ................
    12C0: 00 00 00 00 20 FD 00 00 05 02 00 07 03 00 00 27  // .... ..........'
    12D0: 09 00 00 00 00 00 00 00 00 00 00 00 00 00 00 00  // ................
    12E0: 00 1F 08 00 00 00 00 00 20 FD 00 00 05 02 00 07  // ........ .......
    12F0: 03 00 00 22 04 00 00 00 00 00 00 00 00 00 00 00  // ..."............
    1300: 00 00 00 00 00 1F 11 00 00 00 00 00 20 FD 00 00  // ............ ...
    1310: 05 02 00 07 03 00 00 32 0C 00 00 00 00 00 00 00  // .......2........
    1320: 00 00 00 00 00 00 00 00 00 1F 18 00 00 00 00 00  // ................
    1330: AC 07 01 00 05 02 00 07 03 00 00 2E 10 00 00 00  // ................
    1340: 00 00 00 00 00 00 00 00 00 00 00 00 00 1F 00 00  // ................
    1350: 00 00 00 00 AC 07 01 00 05 02 00 07 03 00 00 1E  // ................
    1360: 00 00 00 00 00 00 00 00 00 00 00 00 00 00 00 00  // ................
    1370: 00 1F 08 00 00 00 00 00 AC 07 01 00 05 02 00 07  // ................
    1380: 03 00 00 22 04 00 00 00 00 00 00 00 00 00 00 00  // ..."............
    1390: 00 00 00 00 00 1F 11 00 00 00 00 00 AC 07 01 00  // ................
    13A0: 05 02 00 07 03 00 00 32 0C 00 00 00 00 00 00 00  // .......2........
    13B0: 00 00 00 00 00 00 00 00 00 1F 10 00 00 00 00 00  // ................
    13C0: AC 07 01 00 05 02 00 07 03 00 00 27 09 00 00 00  // ...........'....
    13D0: 00 00 00 00 00 00 00 00 00 00 00 00 00 1F 0A 00  // ................
    13E0: 00 00 00 00 AC 07 01 00 05 02 00 07 03 00 00 37  // ...............7
    13F0: 07 00 00 00 00 00 00 00 00 00 00 00 00 00 00 00  // ................
    1400: 00 1F 09 00 00 00 00 00 AC 07 01 00 05 02 00 07  // ................
    1410: 03 00 00 2C 06 00 00 00 00 00 00 00 00 00 00 00  // ...,............
    1420: 00 00 00 00 00 1F 01 00 00 00 00 00 AC 07 01 00  // ................
    1430: 05 02 00 07 03 00 00 26 00 00 00 00 00 00 00 00  // .......&........
    1440: 00 00 00 00 00 00 00 00 00 1F 02 00 00 00 00 00  // ................
    1450: AC 07 01 00 05 02 00 07 03 00 00 30 00 00 00 00  // ...........0....
    1460: 00 00 00 00 00 00 00 00 00 00 00 00 00 1F 03 00  // ................
    1470: 00 00 00 00 AC 07 01 00 05 02 00 07 03 00 00 3E  // ...............>
    1480: 00 00 00 00 00 00 00 00 00 00 00 00 00 00 00 00  // ................
    1490: 04 1F 03 01 00 00 00 00 80 38 01 00 05 02 00 07  // .........8......
    14A0: 03 00 05 29 10 00 00 00 00 00 00 00 00 00 00 00  // ...)............
    14B0: 00 00 00 00 04 1F 02 01 00 00 00 00 80 38 01 00  // .............8..
    14C0: 05 02 00 07 03 00 05 2C 0D 00 00 00 00 00 00 00  // .......,........
    14D0: 00 00 00 00 00 00 00 00 04 1F 00 01 00 00 00 00  // ................
    14E0: 80 38 01 00 05 02 00 07 03 00 05 31 08 00 00 00  // .8.........1....
    14F0: 00 00 00 00 00 00 00 00 00 00 00 00 04 1F 01 01  // ................
    1500: 00 00 00 00 80 38 01 00 05 02 00 07 03 00 05 2F  // .....8........./
    1510: 0A 00 00 00 00 00 00 00 00 00 00 00 00 00 00 00  // ................
    1520: 00 1F 01 00 00 00 00 00 68 3C 01 00 05 02 00 07  // ........h<......
    1530: 03 00 00 26 00 00 00 00 00 00 00 00 00 00 00 00  // ...&............
    1540: 00 00 00 00 00 1F 02 00 00 00 00 00 68 3C 01 00  // ............h<..
    1550: 05 02 00 07 03 00 00 2E 00 00 00 00 00 00 00 00  // ................
    1560: 00 00 00 00 00 00 00 00 00 1F 03 00 00 00 00 00  // ................
    1570: 68 3C 01 00 05 02 00 07 03 00 00 3E 00 00 00 00  // h<.........>....
    1580: 00 00 00 00 00 00 00 00 00 00 00 00 00 1F 00 00  // ................
    1590: 00 00 00 00 68 3C 01 00 05 02 00 07 03 00 00 1D  // ....h<..........
    15A0: 00 00 00 00 00 00 00 00 00 00 00 00 00 00 00 00  // ................
    15B0: 00 1F 11 00 00 00 00 00 68 3C 01 00 05 02 00 07  // ........h<......
    15C0: 03 00 00 32 0C 00 00 00 00 00 00 00 00 00 00 00  // ...2............
    15D0: 00 00 00 00 00 1F 10 00 00 00 00 00 68 3C 01 00  // ............h<..
    15E0: 05 02 00 07 03 00 00 27 09 00 00 00 00 00 00 00  // .......'........
    15F0: 00 00 00 00 00 00 00 00 00 1F 18 00 00 00 00 00  // ................
    1600: 68 3C 01 00 05 02 00 07 03 00 00 2E 10 00 00 00  // h<..............
    1610: 00 00 00 00 00 00 00 00 00 00 00 00 00 1F 09 00  // ................
    1620: 00 00 00 00 68 3C 01 00 05 02 00 07 03 00 00 2C  // ....h<.........,
    1630: 06 00 00 00 00 00 00 00 00 00 00 00 00 00 00 00  // ................
    1640: 00 1F 08 00 00 00 00 00 68 3C 01 00 05 02 00 07  // ........h<......
    1650: 03 00 00 22 04 00 00 00 00 00 00 00 00 00 00 00  // ..."............
    1660: 00 00 00 00 00 1F 0A 00 00 00 00 00 68 3C 01 00  // ............h<..
    1670: 05 02 00 07 03 00 00 36 08 00 00 00 00 00 00 00  // .......6........
    1680: 00 00 00 00 00 00 00 00 08 1F 08 00 00 00 00 00  // ................
    1690: A0 86 01 00 05 02 00 07 03 00 03 2D 0E 00 00 00  // ...........-....
    16A0: 00 00 00 00 00 00 00 00 00 00 00 00 08 1F 0E 00  // ................
    16B0: 00 00 00 00 A0 86 01 00 05 02 00 07 03 00 0A 33  // ...............3
    16C0: 00 00 00 00 00 00 00 00 00 00 00 00 00 00 00 00  // ................
    16D0: 08 1F 0D 00 00 00 00 00 A0 86 01 00 05 02 00 07  // ................
    16E0: 03 00 06 2B 0D 00 00 00 00 00 00 00 00 00 00 00  // ...+............
    16F0: 00 00 00 00 08 1F 06 00 00 00 00 00 A0 86 01 00  // ................
    1700: 05 02 00 07 03 00 03 35 06 00 00 00 00 00 00 00  // .......5........
    1710: 00 00 00 00 00 00 00 00 08 1F 0A 00 00 00 00 00  // ................
    1720: A0 86 01 00 05 02 00 07 03 00 06 38 00 00 00 00  // ...........8....
    1730: 00 00 00 00 00 00 00 00 00 00 00 00 08 1F 01 00  // ................
    1740: 00 00 00 00 A0 86 01 00 05 02 00 07 03 00 00 38  // ...............8
    1750: 06 00 00 00 00 00 00 00 00 00 00 00 00 00 00 00  // ................
    1760: 08 1F 0F 00 00 00 00 00 A0 86 01 00 05 02 00 07  // ................
    1770: 03 00 03 22 03 00 00 00 00 00 00 00 00 00 00 00  // ..."............
    1780: 00 00 00 00 08 1F 00 00 00 00 00 00 A0 86 01 00  // ................
    1790: 05 02 00 07 03 00 00 3E 00 00 00 00 00 00 00 00  // .......>........
    17A0: 00 00 00 00 00 00 00 00 08 1F 0B 00 00 00 00 00  // ................
    17B0: A0 86 01 00 05 02 00 07 03 00 06 32 06 00 00 00  // ...........2....
    17C0: 00 00 00 00 00 00 00 00 00 00 00 00 08 1F 02 00  // ................
    17D0: 00 00 00 00 A0 86 01 00 05 02 00 07 03 00 00 33  // ...............3
    17E0: 0B 00 00 00 00 00 00 00 00 00 00 00 00 00 00 00  // ................
    17F0: 08 1F 04 00 00 00 00 00 A0 86 01 00 05 02 00 07  // ................
    1800: 03 00 00 2B 13 00 00 00 00 00 00 00 00 00 00 00  // ...+............
    1810: 00 00 00 00 08 1F 0C 00 00 00 00 00 A0 86 01 00  // ................
    1820: 05 02 00 07 03 00 06 2F 09 00 00 00 00 00 00 00  // ......./........
    1830: 00 00 00 00 00 00 00 00 08 1F 05 00 00 00 00 00  // ................
    1840: A0 86 01 00 05 02 00 07 03 00 03 3B 00 00 00 00  // ...........;....
    1850: 00 00 00 00 00 00 00 00 00 00 00 00 08 1F 07 00  // ................
    1860: 00 00 00 00 A0 86 01 00 05 02 00 07 03 00 03 31  // ...............1
    1870: 0A 00 00 00 00 00 00 00 00 00 00 00 00 00 00 00  // ................
    1880: 08 1F 03 00 00 00 00 00 A0 86 01 00 05 02 00 07  // ................
    1890: 03 00 00 30 0E 00 00 00 00 00 00 00 00 00 00 00  // ...0............
    18A0: 00 00 00 00 08 1F 09 00 00 00 00 00 A0 86 01 00  // ................
    18B0: 05 02 00 07 03 00 03 2A 11 00 00 00 00 00 00 00  // .......*........
    18C0: 00 00 00 00 00 00 00 00 04 1F 03 01 00 00 00 00  // ................
    18D0: A0 86 01 00 05 02 00 07 03 00 05 29 10 00 00 00  // ...........)....
    18E0: 00 00 00 00 00 00 00 00 00 00 00 00 04 1F 02 01  // ................
    18F0: 00 00 00 00 A0 86 01 00 05 02 00 07 03 00 05 2C  // ...............,
    1900: 0D 00 00 00 00 00 00 00 00 00 00 00 00 00 00 00  // ................
    1910: 04 1F 01 01 00 00 00 00 A0 86 01 00 05 02 00 07  // ................
    1920: 03 00 05 2F 0A 00 00 00 00 00 00 00 00 00 00 00  // .../............
    1930: 00 00 00 00 04 1F 00 01 00 00 00 00 A0 86 01 00  // ................
    1940: 05 02 00 07 03 00 05 31 08 00 00 00 00 00 00 00  // .......1........
    1950: 00 00 00 00 00 00 00 00 04 1F 02 01 00 00 00 00  // ................
    1960: C0 D4 01 00 05 02 00 07 03 00 05 2C 0D 00 00 00  // ...........,....
    1970: 00 00 00 00 00 00 00 00 00 00 00 00 04 1F 03 01  // ................
    1980: 00 00 00 00 C0 D4 01 00 05 02 00 07 03 00 05 29  // ...............)
    1990: 10 00 00 00 00 00 00 00 00 00 00 00 00 00 00 00  // ................
    19A0: 04 1F 00 01 00 00 00 00 C0 D4 01 00 05 02 00 07  // ................
    19B0: 03 00 05 31 08 00 00 00 00 00 00 00 00 00 00 00  // ...1............
    19C0: 00 00 00 00 04 1F 01 01 00 00 00 00 C0 D4 01 00  // ................
    19D0: 05 02 00 07 03 00 05 2F 0A 00 00 00 00 00 00 00  // ......./........
    19E0: 00 00 00 00 00 00 00 00 00 00 00 00 00 00 00 00  // ................
    19F0: 00 00 00 00 00 00 00 00 00 00 00 00 00 00 00 00  // ................
    1A00: 00 00 00 00 00 00 00 00 00 00 00 00 00 00 00 00  // ................
    1A10: 00 00 00 00 00 00 00 00 00 00 00 00 00 00 00 00  // ................
    1A20: 00 00 00 00 00 00 00 00 00 00 00 00 00 00 00 00  // ................
    1A30: 00 00 00 00 00 00 00 00 00 00 00 00 00 00 00 00  // ................
    1A40: 00 00 00 00 00 00 00 00 00 00 00 00 00 00 00 00  // ................
    1A50: 00 00 00 00 00 00 00 00 00 00 00 00 00 00 00 00  // ................
    1A60: 00 00 00 00 00 00 00 00 00 00 00 00 00 00 00 00  // ................
    1A70: 00 00 00 00 00 00 00 00 00 00 00 00 00 00 00 00  // ................
    1A80: 00 00 00 00 00 00 00 00 00 00 00 00 00 00 00 00  // ................
    1A90: 00 00 00 00 00 00 00 00 00 00 00 00 00 00 00 00  // ................
    1AA0: 00 00 00 00 00 00 00 00 00 00 00 00 00 00 00 00  // ................
    1AB0: 00 00 00 00 00 00 00 00 00 00 00 00 00 00 00 00  // ................
    1AC0: 00 00 00 00 00 00 00 00 00 00 00 00 00 00 00 00  // ................
    1AD0: 00 00 00 00 00 00 00 00 00 00 00 00 00 00 00 00  // ................
    1AE0: 00 00 00 00 00 00 00 00 00 00 00 00 00 00 00 00  // ................
    1AF0: 00 00 00 00 00 00 00 00 00 00 00 00 00 00 00 00  // ................
    1B00: 00 00 00 00 00 00 00 00 00 00 00 00 00 00 00 00  // ................
    1B10: 00 00 00 00 00 00 00 00 00 00 00 00 00 00 00 00  // ................
    1B20: 00 00 00 00 00 00 00 00 00 00 00 00 00 00 00 00  // ................
    1B30: 00 00 00 00 00 00 00 00 00 00 00 00 00 00 00 00  // ................
    1B40: 00 00 00 00 00 00 00 00 00 00 00 00 00 00 00 00  // ................
    1B50: 00 00 00 00 00 00 00 00 00 00 00 00 00 00 00 00  // ................
    1B60: 00 00 00 00 00 00 00 00 00 00 00 00 00 00 00 00  // ................
    1B70: 00 00 00 00 00 00 00 00 00 00 00 00 00 00 00 00  // ................
    1B80: 00 00 00 00 00 00 00 00 00 00 00 00 00 00 00 00  // ................
    1B90: 00 00 00 00 00 00 00 00 00 00 00 00 00 00 00 00  // ................
    1BA0: 00 00 00 00 00 00 00 00 00 00 00 00 00 00 00 00  // ................
    1BB0: 00 00 00 00 00 00 00 00 00 00 00 00 00 00 00 00  // ................
    1BC0: 00 00 00 00 00 00 00 00 00 00 00 00 00 00 00 00  // ................
    1BD0: 00 00 00 00 00 00 00 00 00 00 00 00 00 00 00 00  // ................
    1BE0: 00 00 00 00 00 00 00 00 00 00 00 00 00 00 00 00  // ................
    1BF0: 00 00 00 00 00 00 00 00 00 00 00 00 00 00 00 00  // ................
    1C00: 00 00 00 00 00 00 00 00 00 00 00 00 00 00 00 00  // ................
    1C10: 00 00 00 00 00 00 00 00 00 00 00 00 00 00 00 00  // ................
    1C20: 00 00 00 00 00 00 00 00 00 00 00 00 00 00 00 00  // ................
    1C30: 00 00 00 00 00 00 00 00 00 00 00 00 00 00 00 00  // ................
    1C40: 00 00 00 00 00 00 00 00 00 00 00 00 00 00 00 00  // ................
    1C50: 00 00 00 00 00 00 00 00 00 00 00 00 00 00 00 00  // ................
    1C60: 00 00 00 00 00 00 00 00 00 00 00 00 00 00 00 00  // ................
    1C70: 00 00 00 00 00 00 00 00 00 00 00 00 00 00 00 00  // ................
    1C80: 00 00 00 00 00 00 00 00 00 00 00 00 00 00 00 00  // ................
    1C90: 00 00 00 00 00 00 00 00 00 00 00 00 00 00 00 00  // ................
    1CA0: 00 00 00 00 00 00 00 00 00 00 00 00 00 00 00 00  // ................
    1CB0: 00 00 00 00 00 00 00 00 00 00 00 00 00 00 00 00  // ................
    1CC0: 00 00 00 00 00 00 00 00 00 00 00 00 00 00 00 00  // ................
    1CD0: 00 00 00 00 00 00 00 00 00 00 00 00 00 00 00 00  // ................
    1CE0: 00 00 00 00 00 00 00 00 00 00 00 00 00 00 00 00  // ................
    1CF0: 00 00 00 00 00 00 00 00 00 00 00 00 00 00 00 00  // ................
    1D00: 00 00 00 00 00 00 00 00 00 00 00 00 00 00 00 00  // ................
    1D10: 00 00 00 00 00 00 00 00 00 00 00 00 00 00 00 00  // ................
    1D20: 00 00 00 00 00 00 00 00 00 00 00 00 00 00 00 00  // ................
    1D30: 00 00 00 00 00 00 00 00 00 00 00 00 00 00 00 00  // ................
    1D40: 00 00 00 00 00 00 00 00 00 00 00 00 00 00 00 00  // ................
    1D50: 00 00 00 00 00 00 00 00 00 00 00 00 00 00 00 00  // ................
    1D60: 00 00 00 00 00 00 00 00 00 00 00 00 00 00 00 00  // ................
    1D70: 00 00 00 00 00 00 00 00 00 00 00 00 00 00 00 00  // ................
    1D80: 00 00 00 00 00 00 00 00 00 00 00 00 00 00 00 00  // ................
    1D90: 00 00 00 00 00 00 00 00 00 00 00 00 00 00 00 00  // ................
    1DA0: 00 00 00 00 00 00 00 00 00 00 00 00 00 00 00 00  // ................
    1DB0: 00 00 00 00 00 00 00 00 00 00 00 00 00 00 00 00  // ................
    1DC0: 00 00 00 00 00 00 00 00 00 00 00 00 00 00 00 00  // ................
    1DD0: 00 00 00 00 00 00 00 00 00 00 00 00 00 00 00 00  // ................
    1DE0: 00 00 00 00 00 00 00 00 00 00 00 00 00 00 00 00  // ................
    1DF0: 00 00 00 00 00 00 00 00 00 00 00 00 00 00 00 00  // ................
    1E00: 00 00 00 00 00 00 00 00 00 00 00 00 00 00 00 00  // ................
    1E10: 00 00 00 00 00 00 00 00 00 00 00 00 00 00 00 00  // ................
    1E20: 00 00 00 00 00 00 00 00 00 00 00 00 00 00 00 00  // ................
    1E30: 00 00 00 00 00 00 00 00 00 00 00 00 00 00 00 00  // ................
    1E40: 00 00 00 00 00 00 00 00 00 00 00 00 00 00 00 00  // ................
    1E50: 00 00 00 00 00 00 00 00 00 00 00 00 00 00 00 00  // ................
    1E60: 00 00 00 00 00 00 00 00 00 00 00 00 00 00 00 00  // ................
    1E70: 00 00 00 00 00 00 00 00 00 00 00 00 00 00 00 00  // ................
    1E80: 00 00 00 00 00 00 00 00 00 00 00 00 00 00 00 00  // ................
    1E90: 00 00 00 00 00 00 00 00 00 00 00 00 00 00 00 00  // ................
    1EA0: 00 00 00 00 00 00 00 00 00 00 00 00 00 00 00 00  // ................
    1EB0: 00 00 00 00 00 00 00 00 00 00 00 00 00 00 00 00  // ................
    1EC0: 00 00 00 00 00 00 00 00 00 00 00 00 00 00 00 00  // ................
    1ED0: 00 00 00 00 00 00 00 00 00 00 00 00 00 00 00 00  // ................
    1EE0: 00 00 00 00 00 00 00 00 00 00 00 00 00 00 00 00  // ................
    1EF0: 00 00 00 00 00 00 00 00 00 00 00 00 00 00 00 00  // ................
    1F00: 00 00 00 00 00 00 00 00 00 00 00 00 00 00 00 00  // ................
    1F10: 00 00 00 00 00 00 00 00 00 00 00 00 00 00 00 00  // ................
    1F20: 00 00 00 00 00 00 00 00 00 00 00 00 00 00 00 00  // ................
    1F30: 00 00 00 00 00 00 00 00 00 00 00 00 00 00 00 00  // ................
    1F40: 00 00 00 00 00 00 00 00 00 00 00 00 00 00 00 00  // ................
    1F50: 00 00 00 00 00 00 00 00 00 00 00 00 00 00 00 00  // ................
    1F60: 00 00 00 00 00 00 00 00 00 00 00 00 00 00 00 00  // ................
    1F70: 00 00 00 00 00 00 00 00 00 00 00 00 00 00 00 00  // ................
    1F80: 00 00 00 00 00 00 00 00 00 00 00 00 00 00 00 00  // ................
    1F90: 00 00 00 00 00 00 00 00 00 00 00 00 00 00 00 00  // ................
    1FA0: 00 00 00 00 00 00 00 00 00 00 00 00 00 00 00 00  // ................
    1FB0: 00 00 00 00 00 00 00 00 00 00 00 00 00 00 00 00  // ................
    1FC0: 00 00 00 00 00 00 00 00 00 00 00 00 00 00 00 00  // ................
    1FD0: 00 00 00 00 00 00 00 00 00 00 00 00 00 00 00 00  // ................
    1FE0: 00 00 00 00 00 00 00 00 00 00 00 00 00 00 00 00  // ................
    1FF0: 00 00 00 00 00 00 00 00 00 00 00 00 00 00 00 00  // ................
    2000: 00 00 00 00 00 00 00 00 00 00 00 00 00 00 00 00  // ................
    2010: 00 00 00 00 00 00 00 00 00 00 00 00 00 00 00 00  // ................
    2020: 00 00 00 00 00 00 00 00 00 00 00 00 00 00 00 00  // ................
    2030: 00 00 00 00 00 00 00 00 00 00 00 00 00 00 00 00  // ................
    2040: 00 00 00 00 00 00 00 00 00 00 00 00 00 00 00 00  // ................
    2050: 00 00 00 00 00 00 00 00 00 00 00 00 00 00 00 00  // ................
    2060: 00 00 00 00 00 00 00 00 00 00 00 00 00 00 00 00  // ................
    2070: 00 00 00 00 00 00 00 00 00 00 00 00 00 00 00 00  // ................
    2080: 00 00 00 00 00 00 00 00 00 00 00 00 00 00 00 00  // ................
    2090: 00 00 00 00 00 00 00 00 00 00 00 00 00 00 00 00  // ................
    20A0: 00 00 00 00 00 00 00 00 00 00 00 00 00 00 00 00  // ................
    20B0: 00 00 00 00 00 00 00 00 00 00 00 00 00 00 00 00  // ................
    20C0: 00 00 00 00 00 00 00 00 00 00 00 00 00 00 00 00  // ................
    20D0: 00 00 00 00 00 00 00 00 00 00 00 00 00 00 00 00  // ................
    20E0: 00 00 00 00 00 00 00 00 00 00 00 00 00 00 00 00  // ................
    20F0: 00 00 00 00 00 00 00 00 00 00 00 00 00 00 00 00  // ................
    2100: 00 00 00 00 00 00 00 00 00 00 00 00 00 00 00 00  // ................
    2110: 00 00 00 00 00 00 00 00 00 00 00 00 00 00 00 00  // ................
    2120: 00 00 00 00 00 00 00 00 00 00 00 00 00 00 00 00  // ................
    2130: 00 00 00 00 00 00 00 00 00 00 00 00 00 00 00 00  // ................
    2140: 00 00 00 00 00 00 00 00 00 00 00 00 00 00 00 00  // ................
    2150: 00 00 00 00 00 00 00 00 00 00 00 00 00 00 00 00  // ................
    2160: 00 00 00 00 00 00 00 00 00 00 00 00 00 00 00 00  // ................
    2170: 00 00 00 00 00 00 00 00 00 00 00 00 00 00 00 00  // ................
    2180: 00 00 00 00 00 00 00 00 00 00 00 00 00 00 00 00  // ................
    2190: 00 00 00 00 00 00 00 00 00 00 00 00 00 00 00 00  // ................
    21A0: 00 00 00 00 00 00 00 00 00 00 00 00 00 00 00 00  // ................
    21B0: 00 00 00 00 00 00 00 00 00 00 00 00 00 00 00 00  // ................
    21C0: 00 00 00 00 00 00 00 00 00 00 00 00 00 00 00 00  // ................
    21D0: 00 00 00 00 00 00 00 00 00 00 00 00 00 00 00 00  // ................
    21E0: 00 00 00 00 00 00 00 00 00 00 00 00 00 00 00 00  // ................
    21F0: 00 00 00 00 00 00 00 00 00 00 00 00 00 00 00 00  // ................
    2200: 00 00 00 00 00 00 00 00 00 00 00 00 00 00 00 00  // ................
    2210: 00 00 00 00 00 00 00 00 00 00 00 00 00 00 00 00  // ................
    2220: 00 00 00 00 00 00 00 00 00 00 00 00 00 00 00 00  // ................
    2230: 00 00 00 00 00 00 00 00 00 00 00 00 00 00 00 00  // ................
    2240: 00 00 00 00 00 00 00 00 00 00 00 00 00 00 00 00  // ................
    2250: 00 00 00 00 00 00 00 00 00 00 00 00 00 00 00 00  // ................
    2260: 00 00 00 00 00 00 00 00 00 00 00 00 00 00 00 00  // ................
    2270: 00 00 00 00 00 00 00 00 00 00 00 00 00 00 00 00  // ................
    2280: 00 00 00 00 00 00 00 00 00 00 00 00 00 00 00 00  // ................
    2290: 00 00 00 00 00 00 00 00 00 00 00 00 00 00 00 00  // ................
    22A0: 00 00 00 00 00 00 00 00 00 00 00 00 00 00 00 00  // ................
    22B0: 00 00 00 00 00 00 00 00 00 00 00 00 00 00 00 00  // ................
    22C0: 00 00 00 00 00 00 00 00 00 00 00 00 00 00 00 00  // ................
    22D0: 00 00 00 00 00 00 00 00 00 00 00 00 00 00 00 00  // ................
    22E0: 00 00 00 00 00 00 00 00 00 00 00 00 00 00 00 00  // ................
    22F0: 00 00 00 00 00 00 00 00 00 00 00 00 00 00 00 00  // ................
    2300: 00 00 00 00 00 00 00 00 00 00 00 00 00 00 00 00  // ................
    2310: 00 00 00 00 00 00 00 00 00 00 00 00 00 00 00 00  // ................
    2320: 00 00 00 00 00 00 00 00 00 00 00 00 00 00 00 00  // ................
    2330: 00 00 00 00 00 00 00 00 00 00 00 00 00 00 00 00  // ................
    2340: 00 00 00 00 00 00 00 00 00 00 00 00 00 00 00 00  // ................
    2350: 00 00 00 00 00 00 00 00 00 00 00 00 00 00 00 00  // ................
    2360: 00 00 00 00 00 00 00 00 00 00 00 00 00 00 00 00  // ................
    2370: 00 00 00 00 00 00 00 00 00 00 00 00 00 00 00 00  // ................
    2380: 00 00 00 00 00 00 00 00 00 00 00 00 00 00 00 00  // ................
    2390: 00 00 00 00 00 00 00 00 00 00 00 00 00 00 00 00  // ................
    23A0: 00 00 00 00 00 00 00 00 00 00 00 00 00 00 00 00  // ................
    23B0: 00 00 00 00 00 00 00 00 00 00 00 00 00 00 00 00  // ................
    23C0: 00 00 00 00 00 00 00 00 00 00 00 00 00 00 00 00  // ................
    23D0: 00 00 00 00 00 00 00 00 00 00 00 00 00 00 00 00  // ................
    23E0: 00 00 00 00 00 00 00 00 00 00 00 00 00 00 00 00  // ................
    23F0: 00 00 00 00 00 00 00 00 00 00 00 00 00 00 00 00  // ................
    2400: 00 00 00 00 00 00 00 00 00 00 00 00 00 00 00 00  // ................
    2410: 00 00 00 00 00 00 00 00 00 00 00 00 00 00 00 00  // ................
    2420: 00 00 00 00 00 00 00 00 00 00 00 00 00 00 00 00  // ................
    2430: 00 00 00 00 00 00 00 00 00 00 00 00 00 00 00 00  // ................
    2440: 00 00 00 00 00 00 00 00 00 00 00 00 00 00 00 00  // ................
    2450: 00 00 00 00 00 00 00 00 00 00 00 00 00 00 00 00  // ................
    2460: 00 00 00 00 00 00 00 00 00 00 00 00 00 00 00 00  // ................
    2470: 00 00 00 00 00 00 00 00 00 00 00 00 00 00 00 00  // ................
    2480: 00 00 00 00 00 00 00 00 00 00 00 00 00 00 00 00  // ................
    2490: 00 00 00 00 00 00 00 00 00 00 00 00 00 00 00 00  // ................
    24A0: 00 00 00 00 00 00 00 00 00 00 00 00 00 00 00 00  // ................
    24B0: 00 00 00 00 00 00 00 00 00 00 00 00 00 00 00 00  // ................
    24C0: 00 00 00 00 00 00 00 00 00 00 00 00 00 00 00 00  // ................
    24D0: 00 00 00 00 00 00 00 00 00 00 00 00 00 00 00 00  // ................
    24E0: 00 00 00 00 00 00 00 00 00 00 00 00 00 00 00 00  // ................
    24F0: 00 00 00 00 00 00 00 00 00 00 00 00 00 00 00 00  // ................
    2500: 00 00 00 00 00 00 00 00 00 00 00 00 00 00 00 00  // ................
    2510: 00 00 00 00 00 00 00 00 00 00 00 00 00 00 00 00  // ................
    2520: 00 00 00 00 00 00 00 00 00 00 00 00 00 00 00 00  // ................
    2530: 00 00 00 00 00 00 00 00 00 00 00 00 00 00 00 00  // ................
    2540: 00 00 00 00 00 00 00 00 00 00 00 00 00 00 00 00  // ................
    2550: 00 00 00 00 00 00 00 00 00 00 00 00 00 00 00 00  // ................
    2560: 00 00 00 00 00 00 00 00 00 00 00 00 00 00 00 00  // ................
    2570: 00 00 00 00 00 00 00 00 00 00 00 00 00 00 00 00  // ................
    2580: 00 00 00 00 00 00 00 00 00 00 00 00 00 00 00 00  // ................
    2590: 00 00 00 00 00 00 00 00 00 00 00 00 00 00 00 00  // ................
    25A0: 00 00 00 00 00 00 00 00 00 00 00 00 00 00 00 00  // ................
    25B0: 00 00 00 00 00 00 00 00 00 00 00 00 00 00 00 00  // ................
    25C0: 00 00 00 00 00 00 00 00 00 00 00 00 00 00 00 00  // ................
    25D0: 00 00 00 00 00 00 00 00 00 00 00 00 00 00 00 00  // ................
    25E0: 00 00 00 00 00 00 00 00 00 00 00 00 00 00 00 00  // ................
    25F0: 00 00 00 00 00 00 00 00 00 00 00 00 00 00 00 00  // ................
    2600: 00 00 00 00 00 00 00 00 00 00 00 00 00 00 00 00  // ................
    2610: 00 00 00 00 00 00 00 00 00 00 00 00 00 00 00 00  // ................
    2620: 00 00 00 00 00 00 00 00 00 00 00 00 00 00 00 00  // ................
    2630: 00 00 00 00 00 00 00 00 00 00 00 00 00 00 00 00  // ................
    2640: 00 00 00 00 00 00 00 00 00 00 00 00 00 00 00 00  // ................
    2650: 00 00 00 00 00 00 00 00 00 00 00 00 00 00 00 00  // ................
    2660: 00 00 00 00 00 00 00 00 00 00 00 00 00 00 00 00  // ................
    2670: 00 00 00 00 00 00 00 00 00 00 00 00 00 00 00 00  // ................
    2680: 00 00 00 00 00 00 00 00 00 00 00 00 00 00 00 00  // ................
    2690: 00 00 00 00 00 00 00 00 00 00 00 00 00 00 00 00  // ................
    26A0: 00 00 00 00 00 00 00 00 00 00 00 00 00 00 00 00  // ................
    26B0: 00 00 00 00 00 00 00 00 00 00 00 00 00 00 00 00  // ................
    26C0: 00 00 00 00 00 00 00 00 00 00 00 00 00 00 00 00  // ................
    26D0: 00 00 00 00 00 00 00 00 00 00 00 00 00 00 00 00  // ................
    26E0: 00 00 00 00 00 00 00 00 00 00 00 00 00 00 00 00  // ................
    26F0: 00 00 00 00 00 00 00 00 00 00 00 00 00 00 00 00  // ................
    2700: 00 00 00 00 00 00 00 00 00 00 00 00 00 00 00 00  // ................
    2710: 00 00 00 00 00 00 00 00 00 00 00 00 00 00 00 00  // ................
    2720: 00 00 00 00 00 00 00 00 00 00 00 00 00 00 00 00  // ................
    2730: 00 00 00 00 00 00 00 00 00 00 00 00 00 00 00 00  // ................
    2740: 00 00 00 00 00 00 00 00 00 00 00 00 00 00 00 00  // ................
    2750: 00 00 00 00 00 00 00 00 00 00 00 00 00 00 00 00  // ................
    2760: 00 00 00 00 00 00 00 00 00 00 00 00 00 00 00 00  // ................
    2770: 00 00 00 00 00 00 00 00 00 00 00 00 00 00 00 00  // ................
    2780: 00 00 00 00 00 00 00 00 00 00 00 00 00 00 00 00  // ................
    2790: 00 00 00 00 00 00 00 00 00 00 00 00 00 00 00 00  // ................
    27A0: 00 00 00 00 00 00 00 00 00 00 00 00 00 00 00 00  // ................
    27B0: 00 00 00 00 00 00 00 00 00 00 00 00 00 00 00 00  // ................
    27C0: 00 00 00 00 00 00 00 00 00 00 00 00 00 00 00 00  // ................
    27D0: 00 00 00 00 00 00 00 00 00 00 00 00 00 00 00 00  // ................
    27E0: 00 00 00 00 00 00 00 00 00 00 00 00 00 00 00 00  // ................
    27F0: 00 00 00 00 00 00 00 00 00 00 00 00 00 00 00 00  // ................
    2800: 00 00 00 00 00 00 00 00 00 00 00 00 00 00 00 00  // ................
    2810: 00 00 00 00 00 00 00 00 00 00 00 00 00 00 00 00  // ................
    2820: 00 00 00 00 00 00 00 00 00 00 00 00 00 00 00 00  // ................
    2830: 00 00 00 00 00 00 00 00 00 00 00 00 00 00 00 00  // ................
    2840: 00 00 00 00 00 00 00 00 00 00 00 00 00 00 00 00  // ................
    2850: 00 00 00 00 00 00 00 00 00 00 00 00 00 00 00 00  // ................
    2860: 00 00 00 00 00 00 00 00 00 00 00 00 00 00 00 00  // ................
    2870: 00 00 00 00 00 00 00 00 00 00 00 00 00 00 00 00  // ................
    2880: 00 00 00 00 00 00 00 00 00 00 00 00 00 00 00 00  // ................
    2890: 00 00 00 00 00 00 00 00 00 00 00 00 00 00 00 00  // ................
    28A0: 00 00 00 00 00 00 00 00 00 00 00 00 00 00 00 00  // ................
    28B0: 00 00 00 00 00 00 00 00 00 00 00 00 00 00 00 00  // ................
    28C0: 00 00 00 00 00 00 00 00 00 00 00 00 00 00 00 00  // ................
    28D0: 00 00 00 00 00 00 00 00 00 00 00 00 00 00 00 00  // ................
    28E0: 00 00 00 00 00 00 00 00 00 00 00 00 00 00 00 00  // ................
    28F0: 00 00 00 00 00 00 00 00 00 00 00 00 00 00 00 00  // ................
    2900: 00 00 00 00 00 00 00 00 00 00 00 00 00 00 00 00  // ................
    2910: 00 00 00 00 00 00 00 00 00 00 00 00 00 00 00 00  // ................
    2920: 00 00 00 00 00 00 00 00 00 00 00 00 00 00 00 00  // ................
    2930: 00 00 00 00 00 00 00 00 00 00 00 00 00 00 00 00  // ................
    2940: 00 00 00 00 00 00 00 00 00 00 00 00 00 00 00 00  // ................
    2950: 00 00 00 00 00 00 00 00 00 00 00 00 00 00 00 00  // ................
    2960: 00 00 00 00 00 00 00 00 00 00 00 00 00 00 00 00  // ................
    2970: 00 00 00 00 00 00 00 00 00 00 00 00 00 00 00 00  // ................
    2980: 00 00 00 00 00 00 00 00 00 00 00 00 00 00 00 00  // ................
    2990: 00 00 00 00 00 00 00 00 00 00 00 00 00 00 00 00  // ................
    29A0: 00 00 00 00 00 00 00 00 00 00 00 00 00 00 00 00  // ................
    29B0: 00 00 00 00 00 00 00 00 00 00 00 00 00 00 00 00  // ................
    29C0: 00 00 00 00 00 00 00 00 00 00 00 00 00 00 00 00  // ................
    29D0: 00 00 00 00 00 00 00 00 00 00 00 00 00 00 00 00  // ................
    29E0: 00 00 00 00 00 00 00 00 00 00 00 00 00 00 00 00  // ................
    29F0: 00 00 00 00 00 00 00 00 00 00 00 00 00 00 00 00  // ................
    2A00: 00 00 00 00 00 00 00 00 00 00 00 00 00 00 00 00  // ................
    2A10: 00 00 00 00 00 00 00 00 00 00 00 00 00 00 00 00  // ................
    2A20: 00 00 00 00 00 00 00 00 00 00 00 00 00 00 00 00  // ................
    2A30: 00 00 00 00 00 00 00 00 00 00 00 00 00 00 00 00  // ................
    2A40: 00 00 00 00 00 00 00 00 00 00 00 00 00 00 00 00  // ................
    2A50: 00 00 00 00 00 00 00 00 00 00 00 00 00 00 00 00  // ................
    2A60: 00 00 00 00 00 00 00 00 00 00 00 00 00 00 00 00  // ................
    2A70: 00 00 00 00 00 00 00 00 00 00 00 00 00 00 00 00  // ................
    2A80: 00 00 00 00 00 00 00 00 00 00 00 00 00 00 00 00  // ................
    2A90: 00 00 00 00 00 00 00 00 00 00 00 00 00 00 00 00  // ................
    2AA0: 00 00 00 00 00 00 00 00 00 00 00 00 00 00 00 00  // ................
    2AB0: 00 00 00 00 00 00 00 00 00 00 00 00 00 00 00 00  // ................
    2AC0: 00 00 00 00 00 00 00 00 00 00 00 00 00 00 00 00  // ................
    2AD0: 00 00 00 00 00 00 00 00 00 00 00 00 00 00 00 00  // ................
    2AE0: 00 00 00 00 00 00 00 00 00 00 00 00 00 00 00 00  // ................
    2AF0: 00 00 00 00 00 00 00 00 00 00 00 00 00 00 00 00  // ................
    2B00: 00 00 00 00 00 00 00 00 00 00 00 00 00 00 00 00  // ................
    2B10: 00 00 00 00 00 00 00 00 00 00 00 00 00 00 00 00  // ................
    2B20: 00 00 00 00 00 00 00 00 00 00 00 00 00 00 00 00  // ................
    2B30: 00 00 00 00 00 00 00 00 00 00 00 00 00 00 00 00  // ................
    2B40: 00 00 00 00 00 00 00 00 00 00 00 00 00 00 00 00  // ................
    2B50: 00 00 00 00 00 00 00 00 00 00 00 00 00 00 00 00  // ................
    2B60: 00 00 00 00 00 00 00 00 00 00 00 00 00 00 00 00  // ................
    2B70: 00 00 00 00 00 00 00 00 00 00 00 00 00 00 00 00  // ................
    2B80: 00 00 00 00 00 00 00 00 00 00 00 00 00 00 00 00  // ................
    2B90: 00 00 00 00 00 00 00 00 00 00 00 00 00 00 00 00  // ................
    2BA0: 00 00 00 00 00 00 00 00 00 00 00 00 00 00 00 00  // ................
    2BB0: 00 00 00 00 00 00 00 00 00 00 00 00 00 00 00 00  // ................
    2BC0: 00 00 00 00 00 00 00 00 00 00 00 00 00 00 00 00  // ................
    2BD0: 00 00 00 00 00 00 00 00 00 00 00 00 00 00 00 00  // ................
    2BE0: 00 00 00 00 00 00 00 00 00 00 00 00 00 00 00 00  // ................
    2BF0: 00 00 00 00 00 00 00 00 00 00 00 00 00 00 00 00  // ................
    2C00: 00 00 00 00 00 00 00 00 00 00 00 00 00 00 00 00  // ................
    2C10: 00 00 00 00 00 00 00 00 00 00 00 00 00 00 00 00  // ................
    2C20: 00 00 00 00 00 00 00 00 00 00 00 00 00 00 00 00  // ................
    2C30: 00 00 00 00 00 00 00 00 00 00 00 00 00 00 00 00  // ................
    2C40: 00 00 00 00 00 00 00 00 00 00 00 00 00 00 00 00  // ................
    2C50: 00 00 00 00 00 00 00 00 00 00 00 00 00 00 00 00  // ................
    2C60: 00 00 00 00 00 00 00 00 00 00 00 00 00 00 00 00  // ................
    2C70: 00 00 00 00 00 00 00 00 00 00 00 00 00 00 00 00  // ................
    2C80: 00 00 00 00 00 00 00 00 00 00 00 00 00 00 00 00  // ................
    2C90: 00 00 00 00 00 00 00 00 00 00 00 00 00 00 00 00  // ................
    2CA0: 00 00 00 00 00 00 00 00 00 00 00 00 00 00 00 00  // ................
    2CB0: 00 00 00 00 00 00 00 00 00 00 00 00 00 00 00 00  // ................
    2CC0: 00 00 00 00 00 00 00 00 00 00 00 00 00 00 00 00  // ................
    2CD0: 00 00 00 00 00 00 00 00 00 00 00 00 00 00 00 00  // ................
    2CE0: 00 00 00 00 00 00 00 00 00 00 00 00 00 00 00 00  // ................
    2CF0: 00 00 00 00 00 00 00 00 00 00 00 00 00 00 00 00  // ................
    2D00: 00 00 00 00 00 00 00 00 00 00 00 00 00 00 00 00  // ................
    2D10: 00 00 00 00 00 00 00 00 00 00 00 00 00 00 00 00  // ................
    2D20: 00 00 00 00 00 00 00 00 00 00 00 00 00 00 00 00  // ................
    2D30: 00 00 00 00 00 00 00 00 00 00 00 00 00 00 00 00  // ................
    2D40: 00 00 00 00 00 00 00 00 00 00 00 00 00 00 00 00  // ................
    2D50: 00 00 00 00 00 00 00 00 00 00 00 00 00 00 00 00  // ................
    2D60: 00 00 00 00 00 00 00 00 00 00 00 00 00 00 00 00  // ................
    2D70: 00 00 00 00 00 00 00 00 00 00 00 00 00 00 00 00  // ................
    2D80: 00 00 00 00 00 00 00 00 00 00 00 00 00 00 00 00  // ................
    2D90: 00 00 00 00 00 00 00 00 00 00 00 00 00 00 00 00  // ................
    2DA0: 00 00 00 00 00 00 00 00 00 00 00 00 00 00 00 00  // ................
    2DB0: 00 00 00 00 00 00 00 00 00 00 00 00 00 00 00 00  // ................
    2DC0: 00 00 00 00 00 00 00 00 00 00 00 00 00 00 00 00  // ................
    2DD0: 00 00 00 00 00 00 00 00 00 00 00 00 00 00 00 00  // ................
    2DE0: 00 00 00 00 00 00 00 00 00 00 00 00 00 00 00 00  // ................
    2DF0: 00 00 00 00 00 00 00 00 00 00 00 00 00 00 00 00  // ................
    2E00: 00 00 00 00 00 00 00 00 00 00 00 00 00 00 00 00  // ................
    2E10: 00 00 00 00 00 00 00 00 00 00 00 00 00 00 00 00  // ................
    2E20: 00 00 00 00 00 00 00 00 00 00 00 00 00 00 00 00  // ................
    2E30: 00 00 00 00 00 00 00 00 00 00 00 00 00 00 00 00  // ................
    2E40: 00 00 00 00 00 00 00 00 00 00 00 00 00 00 00 00  // ................
    2E50: 00 00 00 00 00 00 00 00 00 00 00 00 00 00 00 00  // ................
    2E60: 00 00 00 00 00 00 00 00 00 00 00 00 00 00 00 00  // ................
    2E70: 00 00 00 00 00 00 00 00 00 00 00 00 00 00 00 00  // ................
    2E80: 00 00 00 00 00 00 00 00 00 00 00 00 00 00 00 00  // ................
    2E90: 00 00 00 00 00 00 00 00 00 00 00 00 00 00 00 00  // ................
    2EA0: 00 00 00 00 00 00 00 00 00 00 00 00 00 00 00 00  // ................
    2EB0: 00 00 00 00 00 00 00 00 00 00 00 00 00 00 00 00  // ................
    2EC0: 00 00 00 00 00 00 00 00 00 00 00 00 00 00 00 00  // ................
    2ED0: 00 00 00 00 00 00 00 00 00 00 00 00 00 00 00 00  // ................
    2EE0: 00 00 00 00 00 00 00 00 00 00 00 00 00 00 00 00  // ................
    2EF0: 00 00 00 00 00 00 00 00 00 00 00 00 00 00 00 00  // ................
    2F00: 00 00 00 00 00 00 00 00 00 00 00 00 00 00 00 00  // ................
    2F10: 00 00 00 00 00 00 00 00 00 00 00 00 00 00 00 00  // ................
    2F20: 00 00 00 00 00 00 00 00 00 00 00 00 00 00 00 00  // ................
    2F30: 00 00 00 00 00 00 00 00 00 00 00 00 00 00 00 00  // ................
    2F40: 00 00 00 00 00 00 00 00 00 00 00 00 00 00 00 00  // ................
    2F50: 00 00 00 00 00 00 00 00 00 00 00 00 00 00 00 00  // ................
    2F60: 00 00 00 00 00 00 00 00 00 00 00 00 00 00 00 00  // ................
    2F70: 00 00 00 00 00 00 00 00 00 00 00 00 00 00 00 00  // ................
    2F80: 00 00 00 00 00 00 00 00 00 00 00 00 00 00 00 00  // ................
    2F90: 00 00 00 00 00 00 00 00 00 00 00 00 00 00 00 00  // ................
    2FA0: 00 00 00 00 00 00 00 00 00 00 00 00 00 00 00 00  // ................
    2FB0: 00 00 00 00 00 00 00 00 00 00 00 00 00 00 00 00  // ................
    2FC0: 00 00 00 00 00 00 00 00 00 00 00 00 00 00 00 00  // ................
    2FD0: 00 00 00 00 00 00 00 00 00 00 00 00 00 00 00 00  // ................
    2FE0: 00 00 00 00 00 00 00 00 00 00 00 00 00 00 00 00  // ................
    2FF0: 00 00 00 00 00 00 00 00 00 00 00 00 00 00 00 00  // ................
    3000: 00 00 00 00 00 00 00 00 00 00 00 00 00 00 00 00  // ................
    3010: 00 00 00 00 00 00 00 00 00 00 00 00 00 00 00 00  // ................
    3020: 00 00 00 00 00 00 00 00 00 00 00 00 00 00 00 00  // ................
    3030: 00 00 00 00 00 00 00 00 00 00 00 00 00 00 00 00  // ................
    3040: 00 00 00 00 00 00 00 00 00 00 00 00 00 00 00 00  // ................
    3050: 00 00 00 00 00 00 00 00 00 00 00 00 00 00 00 00  // ................
    3060: 00 00 00 00 00 00 00 00 50 00 03 01 C8 00 00 00  // ........P.......
    3070: B8 0B 00 00 00 00 00 00 7D 00 01 01 FF 00 00 00  // ........}.......
    3080: 00 00 00 00 00 00 00 00 00 00 00 00 C8 00 00 00  // ................
    3090: B8 0B 00 00 00 00 00 00 7D 00 01 01 FF 00 00 00  // ........}.......
    30A0: 00 00 00 00 00 00 00 00 00 00 00 00 00 00 00 00  // ................
    30B0: 00 00 00 00 00 00 00 00 D4 00 04 05 40 6F 01 00  // ............@o..
    30C0: 24 F4 00 00 60 09 60 09 00 00 00 00 00 00 00 00  // $...`.`.........
    30D0: 5E 01 4E 0C 01 01 00 00 55 00 00 00 60 09 86 15  // ^.N.....U...`...
    30E0: 05 03 04 01 00 05 05 00 00 53 07 00 00 46 C3 23  // .........S...F.#
    30F0: 00 00 00 00 00 00 00 00 00 00 00 00 00 00 00 00  // ................
    3100: 10 11 3D 10 4D 1C 02 00 00 45 00 00 00 00 00 00  // ..=.M....E......
    3110: 00 00 00 00 00 00 00 00 00 00 AA 0A 22 22 22 00  // ............""".
    3120: AA FA 03 00 00 00 03 0C 00 00 00 00 A0 00 00 00  // ................
    3130: 00 00 00 00 00 00 00 00 00 00 00 00 00 00 00 00  // ................
    3140: 00 00 00 00 00 00 00 00 00 00 00 00 00 00 00 00  // ................
    3150: 00 00 00 00 00 00 00 00 00 00 00 00 00 00 00 00  // ................
    3160: 00 00 00 00 00 00 00 00 00 00 00 00 00 00 00 00  // ................
    3170: 00 00 00 00 00 00 00 00 00 00 00 00 00 00 00 00  // ................
    3180: 00 00 00 00 00 00 00 00 00 00 00 00 54 00 02 01  // ............T...
    3190: B5 5D 00 00 00 00 01 00 B5 5D 00 00 08 08 02 00  // .].......]......
    31A0: B5 5D 00 00 10 10 03 00 B5 5D 00 00 18 14 04 00  // .].......]......
    31B0: B5 5D 00 00 1A 18 05 00 91 5D 00 00 08 08 90 00  // .].......]......
    31C0: 95 5D 00 00 08 08 91 00 99 5D 00 00 08 08 92 00  // .].......]......
    31D0: 9D 5D 00 00 08 08 93 00 A1 5D 00 00 08 08 94 00  // .].......]......
    31E0: 00 04 02 03 00 00 00 00 00 00 00 00 00 00 00 00  // ................
    31F0: 00 00 00 00 00 00 00 00 00 00 23 08 00 00 00 00  // ..........#.....
    3200: C8 00 00 00 00 00 00 00 00 00 00 00 00 00 01 00  // ................
    3210: 00 00 00 00 00 00 00 00 00 00 00 00 00 00 00 00  // ................
    3220: C8 00 00 00 00 00 00 00 00 00 00 00 00 00 01 00  // ................
    3230: 00 00 00 00 00 00 00 00 00 00 00 00 00 00 00 00  // ................
    3240: 00 00 00 00 00 00 00 00 00 00 00 00 00 00 00 00  // ................
    3250: 00 00 00 00 00 00 00 00 00 00 00 00 00 00 00 00  // ................
    3260: 8C 00 01 01 00 00 00 00 00 00 00 00 00 00 00 00  // ................
    3270: 00 00 00 00 02 00 10 01 14 31 00 00 00 00 E4 00  // .........1......
    3280: 20 00 00 00 00 04 40 02 0C 34 01 01 00 00 E4 00  //  .....@..4......
    3290: 00 00 00 1E 08 00 10 02 17 31 02 02 00 00 E4 00  // .........1......
    32A0: 80 01 F0 20 80 00 20 02 17 32 03 03 00 00 E4 00  // ... .. ..2......
    32B0: 80 01 F0 20 00 02 30 02 17 33 04 04 00 00 E4 00  // ... ..0..3......
    32C0: 00 01 30 00 00 00 00 00 00 00 00 00 00 00 00 00  // ..0.............
    32D0: 00 00 00 00 00 00 00 00 00 00 00 00 00 00 00 00  // ................
    32E0: 00 00 00 00 00 00 00 00 02 00 00 00 02 06 01 00  // ................
    32F0: 02 03 4D 69 6E 69 6D 75 6D 00 00 00 00 00 00 00  // ..Minimum.......
    3300: 00 00 00 00 00 00 00 00 00 00 00 00 00 00 00 00  // ................
    3310: 1F 03 00 00 00 00 00 00 00 00 00 00 00 00 00 00  // ................
    3320: 00 00 00 00 00 00 00 00 00 00 00 00 00 00 00 01  // ................
    3330: 1F 02 00 00 00 00 00 00 00 00 00 00 00 00 00 00  // ................
    3340: 00 00 00 00 00 00 00 00 00 00 00 00 00 00 00 02  // ................
    3350: 1E 02 00 00 00 00 00 00 00 00 00 00 00 00 00 00  // ................
    3360: 00 00 00 00 00 00 00 00 00 00 00 00 00 00 00 04  // ................
    3370: 1C 02 4D 65 64 69 75 6D 00 00 00 00 00 00 00 00  // ..Medium........
    3380: 00 00 00 00 00 00 00 00 00 00 00 00 00 00 00 08  // ................
    3390: 18 03 48 69 67 68 00 00 00 00 00 00 00 00 00 00  // ..High..........
    33A0: 00 00 00 00 00 00 00 00 00 00 00 00 00 00 00 10  // ................
    33B0: 10 03 00 00 00 00 00 00 00 00 00 00 00 00 00 00  // ................
    33C0: 00 00 00 00 00 00 00 00 00 00 00 00 00 00 00 18  // ................
    33D0: 08 02 00 00 00 00 00 00 00 00 00 00 00 00 00 00  // ................
    33E0: 00 00 00 00 00 00 00 00 00 00 00 00 00 00 00 00  // ................
    33F0: 00 00 00 00 00 00 00 00 00 00 00 00 00 00 00 00  // ................
    3400: 00 00 00 00 00 00 00 00 00 00 00 00 00 00 00 00  // ................
    3410: 00 00 00 00 00 00 00 00 00 00 00 00 00 00 00 00  // ................
    3420: 00 00 00 00 00 00 00 00 00 00 00 00 00 00 00 00  // ................
    3430: 00 00 00 00 00 00 00 00 00 00 00 00 00 00 00 00  // ................
    3440: 00 00 00 00 00 00 00 00 00 00 00 00 00 00 00 00  // ................
    3450: 00 00 00 00 00 00 00 00 00 00 00 00 00 00 00 00  // ................
    3460: 00 00 00 00 00 00 00 00 00 00 00 00 00 00 00 00  // ................
    3470: 00 00 00 00 00 00 00 00 00 00 00 00 00 00 00 00  // ................
    3480: 00 00 00 00 00 00 00 00 00 00 00 00 00 00 00 00  // ................
    3490: 00 00 00 00 00 00 00 00 00 00 00 00 00 00 00 00  // ................
    34A0: 00 00 00 00 00 00 00 00 00 00 00 00 00 00 00 00  // ................
    34B0: 00 00 00 00 00 00 00 00 00 00 00 00 00 00 00 00  // ................
    34C0: 00 00 00 00 00 00 00 00 00 00 00 00 00 00 00 00  // ................
    34D0: 00 00 00 00 00 00 00 00 00 00 00 00 00 00 00 00  // ................
    34E0: 00 00 00 00 00 00 00 00 00 00 00 00 00 00 00 00  // ................
    34F0: 00 00 00 00 00 00 00 00 00 00 00 00 00 00 00 00  // ................
    3500: 00 00 00 00 00 00 00 00 00 00 00 00 00 00 00 00  // ................
    3510: 00 00 00 00 00 00 00 00 00 00 00 00 00 00 00 00  // ................
    3520: 00 00 00 00 00 00 00 00 00 00 00 00 00 00 00 00  // ................
    3530: 00 00 00 00 00 00 00 00 00 00 00 00 00 00 00 00  // ................
    3540: 00 00 00 00 00 00 00 00 00 00 00 00 00 00 00 00  // ................
    3550: 00 00 00 00 00 00 00 00 00 00 00 00 00 00 00 00  // ................
    3560: 00 00 00 00 00 00 00 00 00 00 00 00 00 00 00 00  // ................
    3570: 00 00 00 00 00 00 00 00 00 00 00 00 00 00 00 00  // ................
    3580: 00 00 00 00 00 00 00 00 00 00 00 00 00 00 00 00  // ................
    3590: 00 00 00 00 00 00 00 00 00 00 00 00 00 00 00 00  // ................
    35A0: 00 00 00 00 00 00 00 00 00 00 00 00 00 00 00 00  // ................
    35B0: 00 00 00 00 00 00 00 00 00 00 00 00 00 00 00 00  // ................
    35C0: 00 00 00 00 00 00 00 00 00 00 00 00 00 00 00 00  // ................
    35D0: 00 00 00 00 00 00 00 00 00 00 00 00 00 00 00 00  // ................
    35E0: CC 00 03 01 97 36 00 00 96 36 00 00 00 00 00 00  // .....6...6......
    35F0: 00 00 00 00 00 00 00 00 00 00 02 00 00 00 04 00  // ................
    3600: 00 00 05 00 00 00 09 00 00 00 0B 00 00 00 00 00  // ................
    3610: 00 00 00 00 00 00 00 00 00 00 02 00 00 00 01 00  // ................
    3620: 00 00 04 00 00 00 02 00 00 00 00 00 B1 36 00 00  // .............6..
    3630: 00 00 00 00 00 00 00 00 00 00 00 00 00 00 00 00  // ................
    3640: 00 00 00 00 00 00 00 00 00 00 00 00 00 00 00 00  // ................
    3650: 00 00 00 00 00 00 00 00 00 00 00 00 00 00 00 00  // ................
    3660: 00 00 00 00 00 00 00 00 00 00 00 00 00 00 00 00  // ................
    3670: 00 00 00 00 00 00 00 00 00 00 00 00 00 00 00 00  // ................
    3680: 00 00 00 00 00 00 00 00 00 00 00 00 00 00 00 00  // ................
    3690: 00 00 00 00 00 00 00 00 00 00 00 00 00 00 00 00  // ................
    36A0: 00 00 00 00 00 00 00 00 00 00 00 00 0C 01 01 05  // ................
    36B0: CF 0E 05 00 14 31 58 00 1E 21 00 00 00 00 00 00  // .....1X..!......
    36C0: 02 00 00 00 0C 34 7C 00 1E 22 00 00 00 00 00 00  // .....4|.."......
    36D0: 00 04 00 00 17 31 A0 00 20 21 00 00 00 00 00 00  // .....1.. !......
    36E0: 08 00 00 00 17 32 C4 00 20 22 00 00 00 00 00 00  // .....2.. "......
    36F0: 80 00 00 00 17 33 E8 00 21 21 00 00 00 00 00 00  // .....3..!!......
    3700: 00 02 00 00 01 04 90 00 02 04 01 00 03 04 00 00  // ................
    3710: 04 08 A4 1F 00 00 00 00 19 08 00 00 01 00 00 00  // ................
    3720: 18 04 96 A0 FF 00 00 00 01 04 91 00 02 04 02 00  // ................
    3730: 03 04 00 00 04 08 E0 2E 00 00 00 00 19 08 00 00  // ................
    3740: 02 00 00 00 18 04 96 A2 FF 00 00 00 01 04 92 00  // ................
    3750: 02 04 03 00 03 04 04 00 04 08 20 4E 00 00 00 00  // .......... N....
    3760: 19 08 00 00 03 00 00 00 18 04 96 A4 FF 00 00 00  // ................
    3770: 01 04 93 00 02 04 04 00 03 04 04 00 04 08 20 4E  // .............. N
    3780: 00 00 00 00 19 08 00 00 04 00 00 00 18 04 96 A6  // ................
    3790: FF 00 00 00 01 04 94 00 02 04 05 00 03 04 00 00  // ................
    37A0: 04 08 10 27 00 00 00 00 19 08 00 00 05 00 00 00  // ...'............
    37B0: 18 04 96 A8 FF 00 00 00 08 00 01 01 00 00 00 00  // ................
    37C0: 70 01 02 01 D6 09 80 02 A0 00 E0 01 2D 00 10 00  // p...........-...
    37D0: 60 00 0A 00 02 00 00 00 00 00 08 08 06 00 12 3C  // `..............<
    37E0: A0 0F 20 03 00 01 58 02 1C 00 28 00 80 00 01 00  // .. ...X...(.....
    37F0: 04 00 00 00 00 00 00 00 00 00 6A 3C 64 19 00 04  // ..........j<d...
    3800: 40 01 00 03 26 00 18 00 88 00 03 00 06 00 00 00  // @...&...........
    3810: 00 00 00 00 06 00 55 3C 01 1D 00 05 72 01 D0 02  // ......U<....r...
    3820: 1E 00 6E 00 28 00 05 00 05 00 00 00 00 00 00 00  // ..n.(...........
    3830: 00 00 E8 3C 30 2A 00 05 08 02 C0 03 28 00 60 00  // ...<0*......(.`.
    3840: 70 00 01 00 03 00 00 00 00 00 00 00 00 00 E9 3C  // p..............<
    3850: 30 2A 00 05 98 01 00 04 2A 00 30 00 70 00 01 00  // 0*......*.0.p...
    3860: 03 00 00 00 00 00 00 00 00 00 EA 3C 66 21 56 05  // ...........<f!V.
    3870: AA 01 00 03 1E 00 46 00 8F 00 03 00 03 00 00 00  // ......F.........
    3880: 00 00 00 00 02 00 ED 3C 8F 2F 78 05 D0 01 1A 04  // .......<./x.....
    3890: 27 00 58 00 90 00 03 00 04 00 00 00 00 00 00 00  // '.X.............
    38A0: 02 00 EB 3C 48 3F 40 06 30 02 B0 04 32 00 40 00  // ...<H?@.0...2.@.
    38B0: C0 00 01 00 03 00 00 00 00 00 00 00 00 00 EC 3C  // ...............<
    38C0: 02 3A 80 07 18 01 38 04 2D 00 58 00 2C 00 04 00  // .:....8.-.X.,...
    38D0: 05 00 00 00 00 00 00 00 02 00 F3 3C 7D 4B 80 07  // ...........<}K..
    38E0: A0 02 B0 04 2D 00 88 00 C8 00 03 00 06 00 00 00  // ....-...........
    38F0: 00 00 00 00 02 00 F0 3C 68 5B 80 07 A8 02 A0 05  // .......<h[......
    3900: 3C 00 80 00 D0 00 01 00 03 00 00 00 00 00 00 00  // <...............
    3910: 02 00 F1 3C 32 96 00 0A B0 03 40 06 3A 00 C0 00  // ...<2.....@.:...
    3920: 18 01 03 00 06 00 00 00 00 00 00 00 02 00 F2 3C  // ...............<
    3930: A4 00 01 01 10 01 06 12 11 01 16 12 21 01 0A 12  // ............!...
    3940: 13 01 06 6A 14 01 16 6A 22 01 0A 6A 16 01 06 55  // ...j...j"..j...U
    3950: 17 01 16 55 23 01 0A 55 63 01 16 E8 64 01 0A E8  // ...U#..Uc...d...
    3960: 65 01 16 E9 66 01 0A E9 19 01 06 EA 1A 01 16 EA  // e...f...........
    3970: 24 01 0A EA 47 01 16 ED 48 01 0A ED 45 01 16 EB  // $...G...H...E...
    3980: 46 01 0A EB 75 01 16 EC 76 01 0A EC A5 01 16 F3  // F...u...v.......
    3990: A6 01 0A F3 A0 01 16 F0 A1 01 0A F0 A2 01 16 F1  // ................
    39A0: A3 01 0A F1 A4 01 16 F2 A5 01 0A F2 D2 01 16 70  // ...............p
    39B0: D4 01 0A 70 D8 01 16 71 D9 01 0A 71 E2 01 16 72  // ...p...q...q...r
    39C0: E4 01 0A 72 E8 01 16 73 E9 01 0A 73 F5 01 16 74  // ...r...s...s...t
    39D0: F6 01 0A 74 20 00 02 02 02 00 08 00 80 00 00 02  // ...t ...........
    39E0: 00 04 20 00 00 08 40 00 01 00 04 00 10 00 00 01  // .. ...@.........
    39F0: FF FF FF FF 30 00 02 02 00 00 00 00 00 00 00 00  // ....0...........
    3A00: 00 00 00 00 00 00 00 00 00 00 00 00 00 00 00 00  // ................
    3A10: 00 00 00 00 00 00 00 00 00 00 00 00 00 00 00 00  // ................
    3A20: 00 00 00 00 6C 00 03 04 27 00 0B 17 20 4E 00 00  // ....l...'... N..
    3A30: 20 4E 00 00 01 00 00 00 40 04 00 00 4C 00 00 00  //  N......@...L...
    3A40: 00 00 00 00 00 00 00 00 00 00 00 00 80 00 00 00  // ................
    3A50: 00 00 00 00 00 00 00 00 00 00 00 00 00 00 00 00  // ................
    3A60: 00 00 00 00 00 00 00 00 00 00 00 00 00 00 00 00  // ................
    3A70: 00 00 00 00 00 00 00 00 00 10 00 00 00 00 00 00  // ................
    3A80: 00 00 00 00 00 00 00 00 00 00 00 00 8A 06 FC 13  // ................
    3A90: 88 00 03 00 05 0B 02 00 0A 02 02 02 83 14 01 00  // ................
    3AA0: 84 14 01 00 85 14 01 00 86 14 01 00 6F 14 01 00  // ............o...
    3AB0: 32 14 01 00 2E 6A 01 00 10 27 00 00 0A 02 02 00  // 2....j...'......
    3AC0: 00 00 00 00 00 00 00 00 00 00 00 00 00 00 00 00  // ................
    3AD0: 00 00 00 00 00 00 00 00 00 00 00 00 00 00 00 00  // ................
    3AE0: 00 00 00 00 00 00 00 00 00 00 00 00 00 00 00 00  // ................
    3AF0: 03 00 03 00 48 08 19 00 06 00 00 00 00 00 00 00  // ....H...........
    3B00: 00 00 00 00 00 00 00 00 00 00 00 00 00 00 00 00  // ................
    3B10: 00 00 00 00 00 00 00 00 A2 00 02 01 54 3B 00 00  // ............T;..
    3B20: 00 00 00 00 00 00 00 00 D8 42 00 00 00 00 00 00  // .........B......
    3B30: 00 00 00 00 00 00 00 00 00 00 00 00 00 00 00 00  // ................
    3B40: 00 00 00 00 00 00 00 00 48 3D 00 00 00 00 00 00  // ........H=......
    3B50: 00 00 00 00 00 00 00 00 00 00 00 00 00 00 00 00  // ................
    3B60: 00 00 00 00 00 00 00 00 00 00 00 00 00 00 00 00  // ................
    3B70: 00 00 00 00 00 00 00 00 00 00 00 00 00 00 00 00  // ................
    3B80: 00 00 00 00 00 00 A4 3B 00 00 00 00 00 00 00 00  // .......;........
    3B90: 00 00 00 00 00 00 00 00 00 00 00 00 00 00 00 00  // ................
    3BA0: 70 3D 00 00 00 00 00 00 00 00 00 00 00 00 00 00  // p=..............
    3BB0: 00 00 00 00 00 00 00 00 00 00 00 00 4F 00 02 01  // ............O...
    3BC0: 00 00 37 00 00 66 16 3E 0D 42 00 00 44 25 00 03  // ..7..f.>.B..D%..
    3BD0: 0C 41 04 00 4C 0D 41 02 00 44 25 00 0D 25 4C 00  // .A..L.A..D%..%L.
    3BE0: 02 03 00 41 E3 0D 3E 05 41 00 00 00 00 44 44 00  // ...A..>.A....DD.
    3BF0: 33 05 41 01 00 00 00 1B 05 41 0B 01 02 06 00 41  // 3.A......A.....A
    3C00: 0D 25 20 0E 03 0D 65 53 00 02 5B 00 A1 01 04 01  // .% ...eS..[.....
    3C10: 04 00 37 00 00 3D A5 04 01 44 10 01 01 05 0C 00  // ..7..=...D......
    3C20: 5C A7 06 00 03 00 46 0D 00 03 05 00 00 00 00 00  // \.....F.........
    3C30: 3D 25 04 00 49 3F 00 03 39 00 00 03 49 00 01 2D  // =%..I?..9...I..-
    3C40: 02 00 46 02 E2 00 00 02 12 01 00 3D 65 04 00 49  // ..F........=e..I
    3C50: 5A 00 03 39 00 02 03 49 00 03 2D 02 00 46 02 E2  // Z..9...I..-..F..
    3C60: 02 00 02 12 03 00 03 01 40 05 09 05 40 00 00 00  // ........@...@...
    3C70: FC 3E 05 40 00 00 00 80 49 82 00 55 00 00 55 00  // .>.@....I..U..U.
    3C80: 01 01 05 0C 00 B8 51 04 00 01 01 0D 00 06 01 05  // ......Q.........
    3C90: 0C 00 BC 51 04 00 01 05 0D 00 90 00 00 00 01 05  // ...Q............
    3CA0: 0C 00 A4 51 04 00 01 01 0D 00 00 01 05 0C 00 A8  // ...Q............
    3CB0: 51 04 00 01 01 0D 00 01 01 05 0C 00 AC 51 04 00  // Q............Q..
    3CC0: 01 01 0D 00 02 01 05 0C 00 B0 51 04 00 01 01 0D  // ..........Q.....
    3CD0: 00 03 01 05 0C 00 B4 51 04 00 01 01 0D 00 05 03  // .......Q........
    3CE0: 05 41 A0 86 01 00 01 05 0C 00 C8 50 04 00 4A E5  // .A.........P..J.
    3CF0: 0D 00 80 49 09 01 51 14 33 05 41 01 00 00 00 3E  // ...I..Q.3.A....>
    3D00: 05 41 00 00 00 00 49 DA 00 02 00 06 0D 00 02 E5  // .A....I.........
    3D10: 04 01 43 A0 01 02 E5 04 00 43 A0 01 01 05 0C 00  // ..C......C......
    3D20: 84 81 05 00 01 05 0D 00 00 00 07 00 01 05 0C 00  // ................
    3D30: 84 81 05 00 56 00 40 3C 05 0D 00 00 00 00 80 44  // ....V.@<.......D
    3D40: 51 01 51 14 2D 05 40 01 00 00 00 3E 05 40 40 0D  // Q.Q.-.@....>.@@.
    3D50: 03 00 45 2B 01 02 05 06 00 00 00 00 5B 01 05 0C  // ..E+........[...
    3D60: 00 04 52 04 00 01 01 0D 00 00 01 05 0C 00 08 52  // ..R............R
    3D70: 04 00 01 01 0D 00 01 01 05 0C 00 00 52 04 00 03  // ............R...
    3D80: 00 41 0D 00 09 05 41 C1 FF FF FF 0F 05 41 15 00  // .A....A......A..
    3D90: 00 00 01 05 0C 00 00 52 04 00 01 02 0D 00 41 01  // .......R......A.
    3DA0: 05 0C 00 A4 50 04 00 02 00 06 0D 00 5B 00 00 00  // ....P.......[...
    3DB0: 28 00 02 01 00 00 37 00 00 01 05 0C 00 B0 A7 06  // (.....7.........
    3DC0: 00 02 00 00 0D 00 02 01 01 00 01 05 0C 00 B4 A7  // ................
    3DD0: 06 00 02 00 02 0D 00 5B 68 05 02 01 04 50 37 00  // .......[h....P7.
    3DE0: 00 3D 25 00 00 44 17 00 02 A5 00 02 43 67 05 3D  // .=%..D......Cg.=
    3DF0: 65 00 00 44 35 02 3D 65 00 03 44 3A 00 3D 65 00  // e..D5.=e..D:.=e.
    3E00: 01 44 7C 02 3D 65 00 02 44 1E 03 02 A5 00 02 43  // .D|.=e..D......C
    3E10: 67 05 02 A5 00 03 4A 05 B6 36 00 00 01 00 44 67  // g.....J..6....Dg
    3E20: 05 02 A5 00 04 4A 05 C0 36 01 00 00 00 49 67 05  // .....J..6....Ig.
    3E30: 02 A5 00 01 4A 05 A3 36 02 00 00 00 44 67 05 02  // ....J..6....Dg..
    3E40: 00 02 95 36 03 05 00 00 00 00 00 66 04 03 04 00  // ...6.......f....
    3E50: 28 00 15 05 00 10 02 05 01 00 00 00 00 02 05 13  // (...............
    3E60: 00 00 00 00 4A 05 61 36 00 00 00 80 44 B8 00 02  // ....J.a6....D...
    3E70: 18 01 56 36 02 88 01 57 36 32 02 01 00 02 00 13  // ..V6...W62......
    3E80: 61 36 08 05 13 FF FF FF 1F 2C 05 13 01 00 00 00  // a6.......,......
    3E90: 02 05 05 00 00 00 00 02 05 0D 00 00 00 00 4A 05  // ..............J.
    3EA0: 6F 36 00 00 00 80 44 F7 00 02 18 05 79 36 02 88  // o6....D.....y6..
    3EB0: 05 7A 36 32 02 05 00 02 00 0D 6F 36 08 05 0D FF  // .z62......o6....
    3EC0: FF FF 1F 32 00 0D 67 36 2C 05 0D 01 00 00 00 02  // ...2..g6,.......
    3ED0: 05 06 00 00 00 00 02 05 0E 00 00 00 00 4A 05 70  // .............J.p
    3EE0: 36 00 00 00 80 44 36 01 02 18 06 7B 36 02 88 06  // 6....D6....{6...
    3EF0: 7C 36 32 02 06 00 02 00 0E 70 36 08 05 0E FF FF  // |62......p6.....
    3F00: FF 1F 32 00 0E 68 36 2C 05 0E 01 00 00 00 02 05  // ..2..h6,........
    3F10: 07 00 00 00 00 02 05 0F 00 00 00 00 4A 05 71 36  // ............J.q6
    3F20: 00 00 00 80 44 75 01 02 18 07 7D 36 02 88 07 7E  // ....Du....}6...~
    3F30: 36 32 02 07 00 02 00 0F 71 36 08 05 0F FF FF FF  // 62......q6......
    3F40: 1F 32 00 0F 69 36 2C 05 0F 01 00 00 00 02 05 08  // .2..i6,.........
    3F50: 00 00 00 00 02 05 10 00 00 00 00 4A 05 72 36 00  // ...........J.r6.
    3F60: 00 00 80 44 B4 01 02 18 08 7F 36 02 88 08 80 36  // ...D......6....6
    3F70: 32 02 08 00 02 00 10 72 36 08 05 10 FF FF FF 1F  // 2......r6.......
    3F80: 32 00 10 6A 36 2C 05 10 01 00 00 00 02 05 09 00  // 2..j6,..........
    3F90: 00 00 00 02 05 11 00 00 00 00 4A 05 73 36 00 00  // ..........J.s6..
    3FA0: 00 80 44 F3 01 02 18 09 81 36 02 88 09 82 36 32  // ..D......6....62
    3FB0: 02 09 00 02 00 11 73 36 08 05 11 FF FF FF 1F 32  // ......s6.......2
    3FC0: 00 11 6B 36 2C 05 11 01 00 00 00 02 05 0A 00 00  // ..k6,...........
    3FD0: 00 00 02 05 12 00 00 00 00 4A 05 74 36 00 00 00  // .........J.t6...
    3FE0: 80 44 63 05 02 18 0A 83 36 02 88 0A 84 36 32 02  // .Dc.....6....62.
    3FF0: 0A 00 02 00 12 74 36 08 05 12 FF FF FF 1F 32 00  // .....t6.......2.
    4000: 12 6C 36 2C 05 12 01 00 00 00 43 63 05 01 05 0C  // .l6,......Cc....
    4010: 00 84 81 05 00 01 05 0D 00 00 00 06 00 03 05 41  // ...............A
    4020: A0 86 01 00 01 05 0C 00 84 81 05 00 3C 05 0D 00  // ............<...
    4030: 00 00 00 80 44 79 02 51 14 33 05 41 01 00 00 00  // ....Dy.Q.3.A....
    4040: 3E 05 41 00 00 00 00 49 4C 02 02 A5 00 01 43 67  // >.A....IL.....Cg
    4050: 05 43 63 05 4A 05 C0 36 01 00 00 00 49 63 05 01  // .Cc.J..6....Ic..
    4060: 05 B8 36 00 00 02 10 03 05 41 0A 00 00 00 33 05  // ..6......A....3.
    4070: 41 01 00 00 00 3E 05 41 00 00 00 00 44 D9 02 51  // A....>.A....D..Q
    4080: 0A 3C 05 B8 36 00 00 02 00 49 96 02 03 05 41 A0  // .<..6....I....A.
    4090: 0F 00 00 51 0A 33 05 41 01 00 00 00 3E 05 41 00  // ...Q.3.A....>.A.
    40A0: 00 00 00 44 D9 02 3C 05 AA 36 AD DE AD DE 49 BB  // ...D..<..6....I.
    40B0: 02 01 05 B8 36 00 00 00 00 0D 05 C0 36 01 00 00  // ....6.......6...
    40C0: 00 07 05 B6 36 FF FF FE FF 0D 05 01 38 00 01 00  // ....6.......8...
    40D0: 00 51 0A 01 05 97 36 00 00 00 00 01 05 96 36 00  // .Q....6.......6.
    40E0: 00 00 00 01 05 A3 36 00 00 00 00 07 05 01 38 FF  // ......6.......8.
    40F0: FE FF FF 43 63 05 66 04 03 04 00 28 00 15 05 00  // ...Cc.f....(....
    4100: 10 03 05 41 00 00 00 00 03 05 40 00 00 00 00 3D  // ...A......@....=
    4110: 05 02 00 00 00 00 44 91 03 01 01 95 36 02 01 05  // ......D.....6...
    4120: 94 36 00 00 00 80 01 05 97 36 00 00 00 00 01 05  // .6.......6......
    4130: 96 36 00 00 00 00 3D 05 13 00 00 00 00 44 91 03  // .6....=......D..
    4140: 2C 02 01 00 03 89 41 01 03 19 40 01 01 02 56 36  // ,.....A...@...V6
    4150: 41 01 02 57 36 40 32 05 13 01 00 00 00 0E 05 13  // A..W6@2.........
    4160: 00 00 00 80 01 01 61 36 13 3D 05 0D 00 00 00 00  // ......a6.=......
    4170: 44 D4 03 2C 02 05 00 03 89 41 05 03 19 40 05 01  // D..,.....A...@..
    4180: 02 79 36 41 01 02 7A 36 40 03 05 46 00 00 00 02  // .y6A..z6@..F....
    4190: 01 02 67 36 46 2D 01 46 0D 33 05 46 01 00 00 00  // ..g6F-.F.3.F....
    41A0: 0F 05 46 00 00 00 80 01 02 6F 36 46 3D 05 0E 00  // ..F......o6F=...
    41B0: 00 00 00 44 17 04 2C 02 06 00 03 89 41 06 03 19  // ...D..,.....A...
    41C0: 40 06 01 02 7B 36 41 01 02 7C 36 40 03 05 46 00  // @...{6A..|6@..F.
    41D0: 00 00 03 01 02 68 36 46 2D 01 46 0E 33 05 46 01  // .....h6F-.F.3.F.
    41E0: 00 00 00 0F 05 46 00 00 00 80 01 02 70 36 46 3D  // .....F......p6F=
    41F0: 05 0F 00 00 00 00 44 5A 04 2C 02 07 00 03 89 41  // ......DZ.,.....A
    4200: 07 03 19 40 07 01 02 7D 36 41 01 02 7E 36 40 03  // ...@...}6A..~6@.
    4210: 05 46 00 00 00 04 01 02 69 36 46 2D 01 46 0F 33  // .F......i6F-.F.3
    4220: 05 46 01 00 00 00 0F 05 46 00 00 00 80 01 02 71  // .F......F......q
    4230: 36 46 3D 05 10 00 00 00 00 44 9D 04 2C 02 08 00  // 6F=......D..,...
    4240: 03 89 41 08 03 19 40 08 01 02 7F 36 41 01 02 80  // ..A...@....6A...
    4250: 36 40 03 05 46 00 00 00 05 01 02 6A 36 46 2D 01  // 6@..F......j6F-.
    4260: 46 10 33 05 46 01 00 00 00 0F 05 46 00 00 00 80  // F.3.F......F....
    4270: 01 02 72 36 46 3D 05 11 00 00 00 00 44 E0 04 2C  // ..r6F=......D..,
    4280: 02 09 00 03 89 41 09 03 19 40 09 01 02 81 36 41  // .....A...@....6A
    4290: 01 02 82 36 40 03 05 46 00 00 00 06 01 02 6B 36  // ...6@..F......k6
    42A0: 46 2D 01 46 11 33 05 46 01 00 00 00 0F 05 46 00  // F-.F.3.F......F.
    42B0: 00 00 80 01 02 73 36 46 3D 05 12 00 00 00 00 44  // .....s6F=......D
    42C0: 23 05 2C 02 0A 00 03 89 41 0A 03 19 40 0A 01 02  // #.,.....A...@...
    42D0: 83 36 41 01 02 84 36 40 03 05 46 00 00 00 07 01  // .6A...6@..F.....
    42E0: 02 6C 36 46 2D 01 46 12 33 05 46 01 00 00 00 0F  // .l6F-.F.3.F.....
    42F0: 05 46 00 00 00 80 01 02 74 36 46 5C 05 B6 36 00  // .F......t6F\..6.
    4300: FF FF FF C6 00 09 00 07 05 C0 36 FE FF FF FF 03  // ..........6.....
    4310: 05 41 A0 86 01 00 4A 05 A3 36 02 00 00 00 49 63  // .A....J..6....Ic
    4320: 05 51 14 33 05 41 01 00 00 00 3E 05 41 00 00 00  // .Q.3.A....>.A...
    4330: 00 49 3E 05 02 A5 00 01 43 67 05 02 A5 00 00 5B  // .I>.....Cg.....[
    4340: 57 00 02 01 00 00 37 00 00 42 21 00 63 00 23 00  // W.....7..B!.c.#.
    4350: 63 01 3D 00 63 03 43 00 63 02 49 00 63 04 4F 00  // c.=.c.C.c.I.c.O.
    4360: 5A 5A 5B 03 05 40 00 00 05 04 2D 19 40 00 15 05  // ZZ[..@....-.@...
    4370: 40 02 01 02 0C 00 40 02 00 00 0D 00 5B 02 00 00  // @.....@.....[...
    4380: E3 0D 5B 02 00 00 E7 0D 5B 02 00 00 E8 0D 5B 02  // ..[.....[.....[.
    4390: 05 00 00 00 00 00 5B 00 41 54 4F 4D 5F 44 41 54  // ......[.ATOM_DAT
    43A0: 41 5F 54 41 42 4C 45 5F 45 4E 44 00 00 00 00 00  // A_TABLE_END.....
    43B0: 00 00 00 00 00 00 00 00 00 00 00 00 00 00 00 00  // ................
    43C0: 00 00 00 00 00 00 00 00 00 00 00 00 00 00 00 00  // ................
    43D0: 00 00 00 00 00 00 00 00 00 00 00 00 00 00 00 00  // ................
    43E0: 00 00 00 00 00 00 00 00 00 00 00 00 00 00 00 00  // ................
    43F0: 00 00 00 00 00 00 00 00 00 00 00 00 00 00 00 00  // ................
    4400: 00 00 00 00 00 00 00 00 00 00 00 00 00 00 00 00  // ................
    4410: 00 00 00 00 00 00 00 00 00 00 00 00 00 00 00 00  // ................
    4420: 00 00 00 00 00 00 00 00 00 00 00 00 00 00 00 00  // ................
    4430: 00 00 00 00 00 00 00 00 00 00 00 00 00 00 00 00  // ................
    4440: 00 00 00 00 00 00 00 00 00 00 00 00 00 00 00 00  // ................
    4450: 00 00 00 00 00 00 00 00 00 00 00 00 00 00 00 00  // ................
    4460: 00 00 00 00 00 00 00 00 00 00 00 00 00 00 00 00  // ................
    4470: 00 00 00 00 00 00 00 00 00 00 00 00 00 00 00 00  // ................
    4480: 00 00 00 00                                      // ....
