/*
 * Intel ACPI Component Architecture
 * AML/ASL+ Disassembler version 20230628 (64-bit version)
 * Copyright (c) 2000 - 2023 Intel Corporation
 * 
 * Disassembly of ./encoded/crat.dat
 *
 * ACPI Data Table [CRAT]
 *
 * Format: [HexOffset DecimalOffset ByteLength]  FieldName : FieldValue (in hex)
 */

[000h 0000 004h]                   Signature : "CRAT"    
[004h 0004 004h]                Table Length : 00000F10
[008h 0008 001h]                    Revision : 01
[009h 0009 001h]                    Checksum : 2D
[00Ah 0010 006h]                      Oem ID : "LENOVO"
[010h 0016 008h]                Oem Table ID : "CB-01   "
[018h 0024 004h]                Oem Revision : 00000001
[01Ch 0028 004h]             Asl Compiler ID : "ACPI"
[020h 0032 004h]       Asl Compiler Revision : 00040000


**** Unknown ACPI table signature [CRAT]


Raw Table Data: Length 3856 (0xF10)

    0000: 43 52 41 54 10 0F 00 00 01 2D 4C 45 4E 4F 56 4F  // CRAT.....-LENOVO
    0010: 43 42 2D 30 31 20 20 20 01 00 00 00 41 43 50 49  // CB-01   ....ACPI
    0020: 00 00 04 00 3D 00 00 00 01 00 00 00 00 00 00 00  // ....=...........
    0030: 00 28 00 00 05 00 00 00 00 00 00 00 00 00 00 00  // .(..............
    0040: 10 00 00 00 00 00 00 00 00 00 00 00 04 00 00 00  // ................
    0050: 00 00 00 00 00 00 00 00 01 28 00 00 01 00 00 00  // .........(......
    0060: 00 00 00 00 00 00 00 00 00 00 00 00 00 00 0A 00  // ................
    0070: 00 00 00 00 40 00 00 00 00 00 00 00 00 00 00 00  // ....@...........
    0080: 01 28 00 00 01 00 00 00 00 00 00 00 00 00 0C 00  // .(..............
    0090: 00 00 00 00 00 00 F4 5F 00 00 00 00 40 00 00 00  // ......._....@...
    00A0: 00 00 00 00 00 00 00 00 01 28 00 00 01 00 00 00  // .........(......
    00B0: 00 00 00 00 00 00 00 00 01 00 00 00 00 00 00 A0  // ................
    00C0: 03 00 00 00 40 00 00 00 00 00 00 00 00 00 00 00  // ....@...........
    00D0: 02 40 00 00 0B 00 00 00 00 00 00 00 03 00 00 00  // .@..............
    00E0: 00 00 00 00 00 00 00 00 00 00 00 00 00 00 00 00  // ................
    00F0: 00 00 00 00 00 00 00 00 00 00 00 00 20 00 00 00  // ............ ...
    0100: 01 01 40 00 08 00 01 00 00 00 00 00 00 00 00 00  // ..@.............
    0110: 02 40 00 00 0D 00 00 00 00 00 00 00 03 00 00 00  // .@..............
    0120: 00 00 00 00 00 00 00 00 00 00 00 00 00 00 00 00  // ................
    0130: 00 00 00 00 00 00 00 00 00 00 00 00 20 00 00 00  // ............ ...
    0140: 01 01 40 00 08 00 01 00 00 00 00 00 00 00 00 00  // ..@.............
    0150: 02 40 00 00 0F 00 00 00 00 00 00 00 03 00 00 00  // .@..............
    0160: 00 00 00 00 00 00 00 00 00 00 00 00 00 00 00 00  // ................
    0170: 00 00 00 00 00 00 00 00 00 00 00 00 00 04 00 00  // ................
    0180: 02 01 40 00 08 02 01 00 00 00 00 00 00 00 00 00  // ..@.............
    0190: 02 40 00 00 0F 00 00 00 00 00 00 00 FF 00 00 00  // .@..............
    01A0: 00 00 00 00 00 00 00 00 00 00 00 00 00 00 00 00  // ................
    01B0: 00 00 00 00 00 00 00 00 00 00 00 00 00 40 00 00  // .............@..
    01C0: 03 01 40 00 10 00 01 00 00 00 00 00 00 00 00 00  // ..@.............
    01D0: 02 40 00 00 0B 00 00 00 02 00 00 00 0C 00 00 00  // .@..............
    01E0: 00 00 00 00 00 00 00 00 00 00 00 00 00 00 00 00  // ................
    01F0: 00 00 00 00 00 00 00 00 00 00 00 00 20 00 00 00  // ............ ...
    0200: 01 01 40 00 08 00 01 00 00 00 00 00 00 00 00 00  // ..@.............
    0210: 02 40 00 00 0D 00 00 00 02 00 00 00 0C 00 00 00  // .@..............
    0220: 00 00 00 00 00 00 00 00 00 00 00 00 00 00 00 00  // ................
    0230: 00 00 00 00 00 00 00 00 00 00 00 00 20 00 00 00  // ............ ...
    0240: 01 01 40 00 08 00 01 00 00 00 00 00 00 00 00 00  // ..@.............
    0250: 02 40 00 00 0F 00 00 00 02 00 00 00 0C 00 00 00  // .@..............
    0260: 00 00 00 00 00 00 00 00 00 00 00 00 00 00 00 00  // ................
    0270: 00 00 00 00 00 00 00 00 00 00 00 00 00 04 00 00  // ................
    0280: 02 01 40 00 08 02 01 00 00 00 00 00 00 00 00 00  // ..@.............
    0290: 02 40 00 00 0B 00 00 00 04 00 00 00 30 00 00 00  // .@..........0...
    02A0: 00 00 00 00 00 00 00 00 00 00 00 00 00 00 00 00  // ................
    02B0: 00 00 00 00 00 00 00 00 00 00 00 00 20 00 00 00  // ............ ...
    02C0: 01 01 40 00 08 00 01 00 00 00 00 00 00 00 00 00  // ..@.............
    02D0: 02 40 00 00 0D 00 00 00 04 00 00 00 30 00 00 00  // .@..........0...
    02E0: 00 00 00 00 00 00 00 00 00 00 00 00 00 00 00 00  // ................
    02F0: 00 00 00 00 00 00 00 00 00 00 00 00 20 00 00 00  // ............ ...
    0300: 01 01 40 00 08 00 01 00 00 00 00 00 00 00 00 00  // ..@.............
    0310: 02 40 00 00 0F 00 00 00 04 00 00 00 30 00 00 00  // .@..........0...
    0320: 00 00 00 00 00 00 00 00 00 00 00 00 00 00 00 00  // ................
    0330: 00 00 00 00 00 00 00 00 00 00 00 00 00 04 00 00  // ................
    0340: 02 01 40 00 08 02 01 00 00 00 00 00 00 00 00 00  // ..@.............
    0350: 02 40 00 00 0B 00 00 00 06 00 00 00 C0 00 00 00  // .@..............
    0360: 00 00 00 00 00 00 00 00 00 00 00 00 00 00 00 00  // ................
    0370: 00 00 00 00 00 00 00 00 00 00 00 00 20 00 00 00  // ............ ...
    0380: 01 01 40 00 08 00 01 00 00 00 00 00 00 00 00 00  // ..@.............
    0390: 02 40 00 00 0D 00 00 00 06 00 00 00 C0 00 00 00  // .@..............
    03A0: 00 00 00 00 00 00 00 00 00 00 00 00 00 00 00 00  // ................
    03B0: 00 00 00 00 00 00 00 00 00 00 00 00 20 00 00 00  // ............ ...
    03C0: 01 01 40 00 08 00 01 00 00 00 00 00 00 00 00 00  // ..@.............
    03D0: 02 40 00 00 0F 00 00 00 06 00 00 00 C0 00 00 00  // .@..............
    03E0: 00 00 00 00 00 00 00 00 00 00 00 00 00 00 00 00  // ................
    03F0: 00 00 00 00 00 00 00 00 00 00 00 00 00 04 00 00  // ................
    0400: 02 01 40 00 08 02 01 00 00 00 00 00 00 00 00 00  // ..@.............
    0410: 02 40 00 00 0B 00 00 00 08 00 00 00 00 03 00 00  // .@..............
    0420: 00 00 00 00 00 00 00 00 00 00 00 00 00 00 00 00  // ................
    0430: 00 00 00 00 00 00 00 00 00 00 00 00 20 00 00 00  // ............ ...
    0440: 01 01 40 00 08 00 01 00 00 00 00 00 00 00 00 00  // ..@.............
    0450: 02 40 00 00 0D 00 00 00 08 00 00 00 00 03 00 00  // .@..............
    0460: 00 00 00 00 00 00 00 00 00 00 00 00 00 00 00 00  // ................
    0470: 00 00 00 00 00 00 00 00 00 00 00 00 20 00 00 00  // ............ ...
    0480: 01 01 40 00 08 00 01 00 00 00 00 00 00 00 00 00  // ..@.............
    0490: 02 40 00 00 0F 00 00 00 08 00 00 00 00 03 00 00  // .@..............
    04A0: 00 00 00 00 00 00 00 00 00 00 00 00 00 00 00 00  // ................
    04B0: 00 00 00 00 00 00 00 00 00 00 00 00 00 04 00 00  // ................
    04C0: 02 01 40 00 08 02 01 00 00 00 00 00 00 00 00 00  // ..@.............
    04D0: 02 40 00 00 0B 00 00 00 0A 00 00 00 00 0C 00 00  // .@..............
    04E0: 00 00 00 00 00 00 00 00 00 00 00 00 00 00 00 00  // ................
    04F0: 00 00 00 00 00 00 00 00 00 00 00 00 20 00 00 00  // ............ ...
    0500: 01 01 40 00 08 00 01 00 00 00 00 00 00 00 00 00  // ..@.............
    0510: 02 40 00 00 0D 00 00 00 0A 00 00 00 00 0C 00 00  // .@..............
    0520: 00 00 00 00 00 00 00 00 00 00 00 00 00 00 00 00  // ................
    0530: 00 00 00 00 00 00 00 00 00 00 00 00 20 00 00 00  // ............ ...
    0540: 01 01 40 00 08 00 01 00 00 00 00 00 00 00 00 00  // ..@.............
    0550: 02 40 00 00 0F 00 00 00 0A 00 00 00 00 0C 00 00  // .@..............
    0560: 00 00 00 00 00 00 00 00 00 00 00 00 00 00 00 00  // ................
    0570: 00 00 00 00 00 00 00 00 00 00 00 00 00 04 00 00  // ................
    0580: 02 01 40 00 08 02 01 00 00 00 00 00 00 00 00 00  // ..@.............
    0590: 02 40 00 00 0B 00 00 00 0C 00 00 00 00 30 00 00  // .@...........0..
    05A0: 00 00 00 00 00 00 00 00 00 00 00 00 00 00 00 00  // ................
    05B0: 00 00 00 00 00 00 00 00 00 00 00 00 20 00 00 00  // ............ ...
    05C0: 01 01 40 00 08 00 01 00 00 00 00 00 00 00 00 00  // ..@.............
    05D0: 02 40 00 00 0D 00 00 00 0C 00 00 00 00 30 00 00  // .@...........0..
    05E0: 00 00 00 00 00 00 00 00 00 00 00 00 00 00 00 00  // ................
    05F0: 00 00 00 00 00 00 00 00 00 00 00 00 20 00 00 00  // ............ ...
    0600: 01 01 40 00 08 00 01 00 00 00 00 00 00 00 00 00  // ..@.............
    0610: 02 40 00 00 0F 00 00 00 0C 00 00 00 00 30 00 00  // .@...........0..
    0620: 00 00 00 00 00 00 00 00 00 00 00 00 00 00 00 00  // ................
    0630: 00 00 00 00 00 00 00 00 00 00 00 00 00 04 00 00  // ................
    0640: 02 01 40 00 08 02 01 00 00 00 00 00 00 00 00 00  // ..@.............
    0650: 02 40 00 00 0B 00 00 00 0E 00 00 00 00 C0 00 00  // .@..............
    0660: 00 00 00 00 00 00 00 00 00 00 00 00 00 00 00 00  // ................
    0670: 00 00 00 00 00 00 00 00 00 00 00 00 20 00 00 00  // ............ ...
    0680: 01 01 40 00 08 00 01 00 00 00 00 00 00 00 00 00  // ..@.............
    0690: 02 40 00 00 0D 00 00 00 0E 00 00 00 00 C0 00 00  // .@..............
    06A0: 00 00 00 00 00 00 00 00 00 00 00 00 00 00 00 00  // ................
    06B0: 00 00 00 00 00 00 00 00 00 00 00 00 20 00 00 00  // ............ ...
    06C0: 01 01 40 00 08 00 01 00 00 00 00 00 00 00 00 00  // ..@.............
    06D0: 02 40 00 00 0F 00 00 00 0E 00 00 00 00 C0 00 00  // .@..............
    06E0: 00 00 00 00 00 00 00 00 00 00 00 00 00 00 00 00  // ................
    06F0: 00 00 00 00 00 00 00 00 00 00 00 00 00 04 00 00  // ................
    0700: 02 01 40 00 08 02 01 00 00 00 00 00 00 00 00 00  // ..@.............
    0710: 03 40 00 00 0B 00 00 00 00 00 00 00 03 00 00 00  // .@..............
    0720: 00 00 00 00 00 00 00 00 00 00 00 00 00 00 00 00  // ................
    0730: 00 00 00 00 00 00 00 00 00 00 00 00 01 00 00 00  // ................
    0740: FF 48 00 00 FF 48 00 00 0F 48 00 00 00 00 00 00  // .H...H...H......
    0750: 03 40 00 00 0D 00 00 00 00 00 00 00 03 00 00 00  // .@..............
    0760: 00 00 00 00 00 00 00 00 00 00 00 00 00 00 00 00  // ................
    0770: 00 00 00 00 00 00 00 00 00 00 00 00 01 00 00 00  // ................
    0780: 00 00 FF 40 00 00 FF 40 00 00 0F 40 00 00 00 00  // ...@...@...@....
    0790: 03 40 00 00 AB 00 00 00 00 00 00 00 03 00 00 00  // .@..............
    07A0: 00 00 00 00 00 00 00 00 00 00 00 00 00 00 00 00  // ................
    07B0: 00 00 00 00 00 00 00 00 00 00 00 00 02 00 00 00  // ................
    07C0: 05 0C 00 00 08 0C 00 00 FF 48 00 00 00 00 00 00  // .........H......
    07D0: 03 40 00 00 AD 00 00 00 00 00 00 00 03 00 00 00  // .@..............
    07E0: 00 00 00 00 00 00 00 00 00 00 00 00 00 00 00 00  // ................
    07F0: 00 00 00 00 00 00 00 00 00 00 00 00 02 00 00 00  // ................
    0800: 00 00 02 02 00 00 04 02 00 00 00 00 00 00 00 00  // ................
    0810: 03 40 00 00 0B 00 00 00 02 00 00 00 0C 00 00 00  // .@..............
    0820: 00 00 00 00 00 00 00 00 00 00 00 00 00 00 00 00  // ................
    0830: 00 00 00 00 00 00 00 00 00 00 00 00 01 00 00 00  // ................
    0840: FF 48 00 00 FF 48 00 00 0F 48 00 00 00 00 00 00  // .H...H...H......
    0850: 03 40 00 00 0D 00 00 00 02 00 00 00 0C 00 00 00  // .@..............
    0860: 00 00 00 00 00 00 00 00 00 00 00 00 00 00 00 00  // ................
    0870: 00 00 00 00 00 00 00 00 00 00 00 00 01 00 00 00  // ................
    0880: 00 00 FF 40 00 00 FF 40 00 00 0F 40 00 00 00 00  // ...@...@...@....
    0890: 03 40 00 00 AB 00 00 00 02 00 00 00 0C 00 00 00  // .@..............
    08A0: 00 00 00 00 00 00 00 00 00 00 00 00 00 00 00 00  // ................
    08B0: 00 00 00 00 00 00 00 00 00 00 00 00 02 00 00 00  // ................
    08C0: 05 0C 00 00 08 0C 00 00 FF 48 00 00 00 00 00 00  // .........H......
    08D0: 03 40 00 00 AD 00 00 00 02 00 00 00 0C 00 00 00  // .@..............
    08E0: 00 00 00 00 00 00 00 00 00 00 00 00 00 00 00 00  // ................
    08F0: 00 00 00 00 00 00 00 00 00 00 00 00 02 00 00 00  // ................
    0900: 00 00 02 02 00 00 04 02 00 00 00 00 00 00 00 00  // ................
    0910: 03 40 00 00 0B 00 00 00 04 00 00 00 30 00 00 00  // .@..........0...
    0920: 00 00 00 00 00 00 00 00 00 00 00 00 00 00 00 00  // ................
    0930: 00 00 00 00 00 00 00 00 00 00 00 00 01 00 00 00  // ................
    0940: FF 48 00 00 FF 48 00 00 0F 48 00 00 00 00 00 00  // .H...H...H......
    0950: 03 40 00 00 0D 00 00 00 04 00 00 00 30 00 00 00  // .@..........0...
    0960: 00 00 00 00 00 00 00 00 00 00 00 00 00 00 00 00  // ................
    0970: 00 00 00 00 00 00 00 00 00 00 00 00 01 00 00 00  // ................
    0980: 00 00 FF 40 00 00 FF 40 00 00 0F 40 00 00 00 00  // ...@...@...@....
    0990: 03 40 00 00 AB 00 00 00 04 00 00 00 30 00 00 00  // .@..........0...
    09A0: 00 00 00 00 00 00 00 00 00 00 00 00 00 00 00 00  // ................
    09B0: 00 00 00 00 00 00 00 00 00 00 00 00 02 00 00 00  // ................
    09C0: 05 0C 00 00 08 0C 00 00 FF 48 00 00 00 00 00 00  // .........H......
    09D0: 03 40 00 00 AD 00 00 00 04 00 00 00 30 00 00 00  // .@..........0...
    09E0: 00 00 00 00 00 00 00 00 00 00 00 00 00 00 00 00  // ................
    09F0: 00 00 00 00 00 00 00 00 00 00 00 00 02 00 00 00  // ................
    0A00: 00 00 02 02 00 00 04 02 00 00 00 00 00 00 00 00  // ................
    0A10: 03 40 00 00 0B 00 00 00 06 00 00 00 C0 00 00 00  // .@..............
    0A20: 00 00 00 00 00 00 00 00 00 00 00 00 00 00 00 00  // ................
    0A30: 00 00 00 00 00 00 00 00 00 00 00 00 01 00 00 00  // ................
    0A40: FF 48 00 00 FF 48 00 00 0F 48 00 00 00 00 00 00  // .H...H...H......
    0A50: 03 40 00 00 0D 00 00 00 06 00 00 00 C0 00 00 00  // .@..............
    0A60: 00 00 00 00 00 00 00 00 00 00 00 00 00 00 00 00  // ................
    0A70: 00 00 00 00 00 00 00 00 00 00 00 00 01 00 00 00  // ................
    0A80: 00 00 FF 40 00 00 FF 40 00 00 0F 40 00 00 00 00  // ...@...@...@....
    0A90: 03 40 00 00 AB 00 00 00 06 00 00 00 C0 00 00 00  // .@..............
    0AA0: 00 00 00 00 00 00 00 00 00 00 00 00 00 00 00 00  // ................
    0AB0: 00 00 00 00 00 00 00 00 00 00 00 00 02 00 00 00  // ................
    0AC0: 05 0C 00 00 08 0C 00 00 FF 48 00 00 00 00 00 00  // .........H......
    0AD0: 03 40 00 00 AD 00 00 00 06 00 00 00 C0 00 00 00  // .@..............
    0AE0: 00 00 00 00 00 00 00 00 00 00 00 00 00 00 00 00  // ................
    0AF0: 00 00 00 00 00 00 00 00 00 00 00 00 02 00 00 00  // ................
    0B00: 00 00 02 02 00 00 04 02 00 00 00 00 00 00 00 00  // ................
    0B10: 03 40 00 00 0B 00 00 00 08 00 00 00 00 03 00 00  // .@..............
    0B20: 00 00 00 00 00 00 00 00 00 00 00 00 00 00 00 00  // ................
    0B30: 00 00 00 00 00 00 00 00 00 00 00 00 01 00 00 00  // ................
    0B40: FF 48 00 00 FF 48 00 00 0F 48 00 00 00 00 00 00  // .H...H...H......
    0B50: 03 40 00 00 0D 00 00 00 08 00 00 00 00 03 00 00  // .@..............
    0B60: 00 00 00 00 00 00 00 00 00 00 00 00 00 00 00 00  // ................
    0B70: 00 00 00 00 00 00 00 00 00 00 00 00 01 00 00 00  // ................
    0B80: 00 00 FF 40 00 00 FF 40 00 00 0F 40 00 00 00 00  // ...@...@...@....
    0B90: 03 40 00 00 AB 00 00 00 08 00 00 00 00 03 00 00  // .@..............
    0BA0: 00 00 00 00 00 00 00 00 00 00 00 00 00 00 00 00  // ................
    0BB0: 00 00 00 00 00 00 00 00 00 00 00 00 02 00 00 00  // ................
    0BC0: 05 0C 00 00 08 0C 00 00 FF 48 00 00 00 00 00 00  // .........H......
    0BD0: 03 40 00 00 AD 00 00 00 08 00 00 00 00 03 00 00  // .@..............
    0BE0: 00 00 00 00 00 00 00 00 00 00 00 00 00 00 00 00  // ................
    0BF0: 00 00 00 00 00 00 00 00 00 00 00 00 02 00 00 00  // ................
    0C00: 00 00 02 02 00 00 04 02 00 00 00 00 00 00 00 00  // ................
    0C10: 03 40 00 00 0B 00 00 00 0A 00 00 00 00 0C 00 00  // .@..............
    0C20: 00 00 00 00 00 00 00 00 00 00 00 00 00 00 00 00  // ................
    0C30: 00 00 00 00 00 00 00 00 00 00 00 00 01 00 00 00  // ................
    0C40: FF 48 00 00 FF 48 00 00 0F 48 00 00 00 00 00 00  // .H...H...H......
    0C50: 03 40 00 00 0D 00 00 00 0A 00 00 00 00 0C 00 00  // .@..............
    0C60: 00 00 00 00 00 00 00 00 00 00 00 00 00 00 00 00  // ................
    0C70: 00 00 00 00 00 00 00 00 00 00 00 00 01 00 00 00  // ................
    0C80: 00 00 FF 40 00 00 FF 40 00 00 0F 40 00 00 00 00  // ...@...@...@....
    0C90: 03 40 00 00 AB 00 00 00 0A 00 00 00 00 0C 00 00  // .@..............
    0CA0: 00 00 00 00 00 00 00 00 00 00 00 00 00 00 00 00  // ................
    0CB0: 00 00 00 00 00 00 00 00 00 00 00 00 02 00 00 00  // ................
    0CC0: 05 0C 00 00 08 0C 00 00 FF 48 00 00 00 00 00 00  // .........H......
    0CD0: 03 40 00 00 AD 00 00 00 0A 00 00 00 00 0C 00 00  // .@..............
    0CE0: 00 00 00 00 00 00 00 00 00 00 00 00 00 00 00 00  // ................
    0CF0: 00 00 00 00 00 00 00 00 00 00 00 00 02 00 00 00  // ................
    0D00: 00 00 02 02 00 00 04 02 00 00 00 00 00 00 00 00  // ................
    0D10: 03 40 00 00 0B 00 00 00 0C 00 00 00 00 30 00 00  // .@...........0..
    0D20: 00 00 00 00 00 00 00 00 00 00 00 00 00 00 00 00  // ................
    0D30: 00 00 00 00 00 00 00 00 00 00 00 00 01 00 00 00  // ................
    0D40: FF 48 00 00 FF 48 00 00 0F 48 00 00 00 00 00 00  // .H...H...H......
    0D50: 03 40 00 00 0D 00 00 00 0C 00 00 00 00 30 00 00  // .@...........0..
    0D60: 00 00 00 00 00 00 00 00 00 00 00 00 00 00 00 00  // ................
    0D70: 00 00 00 00 00 00 00 00 00 00 00 00 01 00 00 00  // ................
    0D80: 00 00 FF 40 00 00 FF 40 00 00 0F 40 00 00 00 00  // ...@...@...@....
    0D90: 03 40 00 00 AB 00 00 00 0C 00 00 00 00 30 00 00  // .@...........0..
    0DA0: 00 00 00 00 00 00 00 00 00 00 00 00 00 00 00 00  // ................
    0DB0: 00 00 00 00 00 00 00 00 00 00 00 00 02 00 00 00  // ................
    0DC0: 05 0C 00 00 08 0C 00 00 FF 48 00 00 00 00 00 00  // .........H......
    0DD0: 03 40 00 00 AD 00 00 00 0C 00 00 00 00 30 00 00  // .@...........0..
    0DE0: 00 00 00 00 00 00 00 00 00 00 00 00 00 00 00 00  // ................
    0DF0: 00 00 00 00 00 00 00 00 00 00 00 00 02 00 00 00  // ................
    0E00: 00 00 02 02 00 00 04 02 00 00 00 00 00 00 00 00  // ................
    0E10: 03 40 00 00 0B 00 00 00 0E 00 00 00 00 C0 00 00  // .@..............
    0E20: 00 00 00 00 00 00 00 00 00 00 00 00 00 00 00 00  // ................
    0E30: 00 00 00 00 00 00 00 00 00 00 00 00 01 00 00 00  // ................
    0E40: FF 48 00 00 FF 48 00 00 0F 48 00 00 00 00 00 00  // .H...H...H......
    0E50: 03 40 00 00 0D 00 00 00 0E 00 00 00 00 C0 00 00  // .@..............
    0E60: 00 00 00 00 00 00 00 00 00 00 00 00 00 00 00 00  // ................
    0E70: 00 00 00 00 00 00 00 00 00 00 00 00 01 00 00 00  // ................
    0E80: 00 00 FF 40 00 00 FF 40 00 00 0F 40 00 00 00 00  // ...@...@...@....
    0E90: 03 40 00 00 AB 00 00 00 0E 00 00 00 00 C0 00 00  // .@..............
    0EA0: 00 00 00 00 00 00 00 00 00 00 00 00 00 00 00 00  // ................
    0EB0: 00 00 00 00 00 00 00 00 00 00 00 00 02 00 00 00  // ................
    0EC0: 05 0C 00 00 08 0C 00 00 FF 48 00 00 00 00 00 00  // .........H......
    0ED0: 03 40 00 00 AD 00 00 00 0E 00 00 00 00 C0 00 00  // .@..............
    0EE0: 00 00 00 00 00 00 00 00 00 00 00 00 00 00 00 00  // ................
    0EF0: 00 00 00 00 00 00 00 00 00 00 00 00 02 00 00 00  // ................
    0F00: 00 00 02 02 00 00 04 02 00 00 00 00 00 00 00 00  // ................
