/*
 * Intel ACPI Component Architecture
 * AML/ASL+ Disassembler version 20230628 (64-bit version)
 * Copyright (c) 2000 - 2023 Intel Corporation
 * 
 * Disassembly of ./encoded/vfct.dat, Fri Dec 15 00:33:33 2023
 *
 * ACPI Data Table [VFCT]
 *
 * Format: [HexOffset DecimalOffset ByteLength]  FieldName : FieldValue (in hex)
 */

[000h 0000 004h]                   Signature : "VFCT"    
[004h 0004 004h]                Table Length : 00003084
[008h 0008 001h]                    Revision : 01
[009h 0009 001h]                    Checksum : 77
[00Ah 0010 006h]                      Oem ID : "ALASKA"
[010h 0016 008h]                Oem Table ID : "A M I "
[018h 0024 004h]                Oem Revision : 00000001
[01Ch 0028 004h]             Asl Compiler ID : "AMD "
[020h 0032 004h]       Asl Compiler Revision : 33504F47


**** Unknown ACPI table signature [VFCT]


Raw Table Data: Length 12420 (0x3084)

    0000: 56 46 43 54 84 30 00 00 01 77 41 4C 41 53 4B 41  // VFCT.0...wALASKA
    0010: 41 20 4D 20 49 20 00 00 01 00 00 00 41 4D 44 20  // A M I ......AMD 
    0020: 47 4F 50 33 32 9B A3 5D BD C6 CF 49 95 A6 E8 E4  // GOP32..]...I....
    0030: 2E CD 79 A7 4C 00 00 00 00 00 00 00 00 00 00 00  // ..y.L...........
    0040: 00 00 00 00 00 00 00 00 00 00 00 00 C4 00 00 00  // ................
    0050: 00 00 00 00 00 00 00 00 02 10 BF 15 00 00 00 00  // ................
    0060: 01 00 00 00 00 30 00 00 55 AA 18 00 00 00 00 00  // .....0..U.......
    0070: 00 00 00 00 00 00 00 00 00 00 00 00 00 00 00 00  // ................
    0080: C0 01 00 00 00 00 49 42 4D 4F 00 00 00 00 00 00  // ......IBMO......
    0090: 00 00 00 00 00 00 00 04 20 37 36 31 32 39 35 35  // ........ 7612955
    00A0: 32 30 00 00 00 00 00 00 00 00 00 00 00 00 00 00  // 20..............
    00B0: 94 01 00 00 00 00 00 00 30 33 2F 32 38 2F 32 33  // ........03/28/23
    00C0: 2C 30 33 3A 31 32 3A 34 35 00 00 00 00 00 00 00  // ,03:12:45.......
    00D0: 00 00 00 00 00 00 80 00 00 00 00 00 00 00 00 00  // ................
    00E0: 00 00 00 00 00 00 00 00 31 31 33 2D 50 48 58 47  // ........113-PHXG
    00F0: 45 4E 45 52 49 43 2D 30 30 31 00 50 48 4F 45 4E  // ENERIC-001.PHOEN
    0100: 49 58 00 50 43 49 5F 45 58 50 52 45 53 53 00 44  // IX.PCI_EXPRESS.D
    0110: 44 52 35 00 0D 0A 41 4D 44 20 41 4D 44 5F 50 48  // DR5...AMD AMD_PH
    0120: 4F 45 4E 49 58 5F 47 45 4E 45 52 49 43 20 20 20  // OENIX_GENERIC   
    0130: 20 20 20 20 20 20 20 20 20 20 20 20 20 20 20 20  //                 
    0140: 20 20 20 20 20 20 20 20 20 20 20 20 20 20 20 20  //                 
    0150: 20 20 20 20 20 20 20 20 20 20 20 20 20 20 20 20  //                 
    0160: 20 20 0D 0A 00 0D 0A 20 0D 0A 00 28 43 29 20 31  //   ..... ...(C) 1
    0170: 39 38 38 2D 32 30 32 32 2C 20 41 64 76 61 6E 63  // 988-2022, Advanc
    0180: 65 64 20 4D 69 63 72 6F 20 44 65 76 69 63 65 73  // ed Micro Devices
    0190: 2C 20 49 6E 63 2E 00 41 54 4F 4D 42 49 4F 53 42  // , Inc..ATOMBIOSB
    01A0: 4B 2D 41 4D 44 20 56 45 52 30 32 32 2E 30 31 32  // K-AMD VER022.012
    01B0: 2E 30 30 30 2E 30 31 36 2E 30 30 30 30 30 31 00  // .000.016.000001.
    01C0: 50 48 4F 45 4E 49 58 2E 62 69 6E 20 00 30 30 30  // PHOENIX.bin .000
    01D0: 30 30 30 30 30 00 30 30 30 35 38 32 37 35 00 20  // 00000.00058275. 
    01E0: 20 20 20 20 20 20 20 00 41 4D 44 5F 50 48 4F 45  //        .AMD_PHOE
    01F0: 4E 49 58 5F 47 45 4E 45 52 49 43 00 2C 00 02 03  // NIX_GENERIC.,...
    0200: 41 54 4F 4D 00 00 00 00 58 01 E5 01 AC 00 00 00  // ATOM....X.......
    0210: 00 00 00 00 02 10 02 10 C0 01 60 27 00 03 00 00  // ..........`'....
    0220: 00 00 00 00 00 02 03 00 50 43 49 52 02 10 BF 15  // ........PCIR....
    0230: 00 00 18 00 00 00 80 03 18 00 0C 16 00 80 00 00  // ................
    0240: 41 4D 44 20 41 54 4F 4D 42 49 4F 53 00 D7 8D 67  // AMD ATOMBIOS...g
    0250: 5B 00 00 00 00 00 00 00 00 00 00 00 00 00 00 00  // [...............
    0260: 00 00 00 00 00 00 00 00 00 00 00 00 00 00 00 00  // ................
    0270: 00 00 00 00 00 00 00 00 00 00 00 00 00 00 00 00  // ................
    0280: 00 00 00 00 00 00 00 00 00 00 00 00 00 00 00 00  // ................
    0290: 00 00 00 00 00 00 00 00 00 00 00 00 00 00 00 00  // ................
    02A0: 00 00 00 00 00 00 00 00 00 00 00 00 00 00 00 00  // ................
    02B0: 00 00 00 00 00 00 00 00 00 00 00 00 00 00 00 00  // ................
    02C0: 00 00 00 00 00 00 00 00 00 00 00 00 00 00 00 00  // ................
    02D0: 00 00 00 00 00 00 00 00 00 00 00 00 00 00 00 00  // ................
    02E0: 00 00 00 00 00 00 00 00 00 00 00 00 00 00 00 00  // ................
    02F0: 00 00 00 00 00 00 00 00 00 00 00 00 00 00 00 00  // ................
    0300: 00 00 00 00 00 00 00 00 00 00 00 00 00 00 00 00  // ................
    0310: 00 00 00 00 00 00 00 00 00 00 00 00 00 00 00 00  // ................
    0320: 00 00 00 00 00 00 00 00 00 00 00 00 00 00 00 00  // ................
    0330: 00 00 00 00 00 00 00 00 00 00 00 00 00 00 00 00  // ................
    0340: 00 00 00 00 00 00 00 00 00 00 00 00 00 00 00 00  // ................
    0350: 00 00 00 00 00 00 00 00 00 00 00 00 00 00 00 00  // ................
    0360: 00 00 00 00 00 00 00 00 4A 00 02 01 00 00 00 00  // ........J.......
    0370: 00 00 D8 23 4C 26 48 25 88 1D 4C 03 B8 26 00 00  // ...#L&H%..L..&..
    0380: 00 00 40 26 AC 1E 7C 25 D4 26 00 00 00 00 20 26  // ..@&..|%.&.... &
    0390: 00 00 00 00 00 00 00 00 00 23 D0 23 00 00 54 05  // .........#.#..T.
    03A0: 00 00 D8 1D 00 00 00 00 00 1F 00 00 00 00 00 00  // ................
    03B0: 00 00 00 00 08 02 05 04 10 00 38 00 4C 00 60 01  // ..........8.L.`.
    03C0: A8 01 00 00 30 75 00 00 0C 00 1F 05 39 50 00 00  // ....0u......9P..
    03D0: 40 9C 00 00 0C 00 1F 05 3E 00 00 00 FF FF FF 00  // @.......>.......
    03E0: 0C 00 1F 05 6F A1 00 00 00 00 00 00 FF FF FF 00  // ....o...........
    03F0: 0C 00 1F 02 3E 00 00 00 00 00 00 00 00 00 00 00  // ....>...........
    0400: 48 3F 00 00 1F 00 44 00 00 16 00 00 00 05 01 1F  // H?....D.........
    0410: 00 00 00 05 02 2C 00 00 00 05 03 3E 00 00 00 05  // .....,.....>....
    0420: 08 1B 50 00 00 05 09 25 60 00 00 05 0A 35 90 00  // ..P....%`....5..
    0430: 00 05 10 21 B0 00 00 05 11 2F F0 00 00 05 18 2A  // ...!...../.....*
    0440: 40 01 00 05 78 69 00 00 1F 00 44 00 00 16 00 00  // @...xi....D.....
    0450: 00 05 01 1F 00 00 00 05 02 2C 00 00 00 05 03 3E  // .........,.....>
    0460: 00 00 00 05 08 1B 50 00 00 05 09 25 60 00 00 05  // ......P....%`...
    0470: 0A 35 90 00 00 05 10 21 B0 00 00 05 11 2F F0 00  // .5.....!...../..
    0480: 00 05 18 2A 40 01 00 05 F0 D2 00 00 1F 00 44 00  // ...*@.........D.
    0490: 00 1E 00 00 00 05 01 26 00 00 00 05 02 30 00 00  // .......&.....0..
    04A0: 00 05 03 3E 00 00 00 05 08 22 40 00 00 05 09 2C  // ...>....."@....,
    04B0: 60 00 00 05 0A 37 70 00 00 05 10 27 90 00 00 05  // `....7p....'....
    04C0: 11 32 C0 00 00 05 18 2E 00 01 00 05 68 3C 01 00  // .2..........h<..
    04D0: 1F 00 44 00 00 1E 00 00 00 05 01 26 00 00 00 05  // ..D........&....
    04E0: 02 30 00 00 00 05 03 3E 00 00 00 05 08 22 40 00  // .0.....>....."@.
    04F0: 00 05 09 2C 60 00 00 05 0A 37 70 00 00 05 10 27  // ...,`....7p....'
    0500: 90 00 00 05 11 32 C0 00 00 05 18 2E 00 01 00 05  // .....2..........
    0510: 00 00 00 00 00 01 02 03 00 01 02 03 00 07 05 00  // ................
    0520: 00 01 02 03 00 01 02 03 00 07 05 00 00 01 02 03  // ................
    0530: 00 01 02 03 00 07 05 00 00 01 02 03 00 01 02 03  // ................
    0540: 00 07 05 00 00 01 02 03 00 01 02 03 00 07 05 00  // ................
    0550: 00 01 02 03 00 01 02 03 00 07 05 00 08 30 00 00  // .............0..
    0560: 87 00 00 00 07 30 00 00 B2 25 00 00 08 31 00 00  // .....0...%...1..
    0570: 87 00 00 00 07 31 00 00 B2 25 00 00 08 32 00 00  // .....1...%...2..
    0580: 87 00 00 00 07 32 00 00 B2 25 00 00 08 33 00 00  // .....2...%...3..
    0590: 87 00 00 00 07 33 00 00 B2 25 00 00 5A 00 00 00  // .....3...%..Z...
    05A0: 05 00 00 00 47 00 00 00 30 00 00 00 54 00 00 00  // ....G...0...T...
    05B0: 30 00 00 00 FF FF FF FF 00 00 00 00 FC 13 01 00  // 0...............
    05C0: 00 1F 00 00 00 00 00 00 48 3F 00 00 05 02 00 07  // ........H?......
    05D0: 03 00 00 16 00 00 00 00 00 00 00 00 00 00 00 00  // ................
    05E0: 00 00 00 00 00 1F 01 00 00 00 00 00 48 3F 00 00  // ............H?..
    05F0: 05 02 00 07 03 00 00 1F 00 00 00 00 00 00 00 00  // ................
    0600: 00 00 00 00 00 00 00 00 00 1F 02 00 00 00 00 00  // ................
    0610: 48 3F 00 00 05 02 00 07 03 00 00 2C 00 00 00 00  // H?.........,....
    0620: 00 00 00 00 00 00 00 00 00 00 00 00 00 1F 03 00  // ................
    0630: 00 00 00 00 48 3F 00 00 05 02 00 07 03 00 00 3E  // ....H?.........>
    0640: 00 00 00 00 00 00 00 00 00 00 00 00 00 00 00 00  // ................
    0650: 00 1F 08 00 00 00 00 00 48 3F 00 00 05 02 00 07  // ........H?......
    0660: 03 00 00 1B 05 00 00 00 00 00 00 00 00 00 00 00  // ................
    0670: 00 00 00 00 00 1F 09 00 00 00 00 00 48 3F 00 00  // ............H?..
    0680: 05 02 00 07 03 00 00 25 06 00 00 00 00 00 00 00  // .......%........
    0690: 00 00 00 00 00 00 00 00 00 1F 0A 00 00 00 00 00  // ................
    06A0: 48 3F 00 00 05 02 00 07 03 00 00 35 09 00 00 00  // H?.........5....
    06B0: 00 00 00 00 00 00 00 00 00 00 00 00 00 1F 10 00  // ................
    06C0: 00 00 00 00 48 3F 00 00 05 02 00 07 03 00 00 21  // ....H?.........!
    06D0: 0B 00 00 00 00 00 00 00 00 00 00 00 00 00 00 00  // ................
    06E0: 00 1F 11 00 00 00 00 00 48 3F 00 00 05 02 00 07  // ........H?......
    06F0: 03 00 00 2F 0F 00 00 00 00 00 00 00 00 00 00 00  // .../............
    0700: 00 00 00 00 00 1F 18 00 00 00 00 00 48 3F 00 00  // ............H?..
    0710: 05 02 00 07 03 00 00 2A 14 00 00 00 00 00 00 00  // .......*........
    0720: 00 00 00 00 00 00 00 00 00 1F 00 00 00 00 00 00  // ................
    0730: 78 69 00 00 05 02 00 07 03 00 00 16 00 00 00 00  // xi..............
    0740: 00 00 00 00 00 00 00 00 00 00 00 00 00 1F 01 00  // ................
    0750: 00 00 00 00 78 69 00 00 05 02 00 07 03 00 00 1F  // ....xi..........
    0760: 00 00 00 00 00 00 00 00 00 00 00 00 00 00 00 00  // ................
    0770: 00 1F 02 00 00 00 00 00 78 69 00 00 05 02 00 07  // ........xi......
    0780: 03 00 00 2C 00 00 00 00 00 00 00 00 00 00 00 00  // ...,............
    0790: 00 00 00 00 00 1F 03 00 00 00 00 00 78 69 00 00  // ............xi..
    07A0: 05 02 00 07 03 00 00 3E 00 00 00 00 00 00 00 00  // .......>........
    07B0: 00 00 00 00 00 00 00 00 00 1F 08 00 00 00 00 00  // ................
    07C0: 78 69 00 00 05 02 00 07 03 00 00 1B 05 00 00 00  // xi..............
    07D0: 00 00 00 00 00 00 00 00 00 00 00 00 00 1F 09 00  // ................
    07E0: 00 00 00 00 78 69 00 00 05 02 00 07 03 00 00 25  // ....xi.........%
    07F0: 06 00 00 00 00 00 00 00 00 00 00 00 00 00 00 00  // ................
    0800: 00 1F 0A 00 00 00 00 00 78 69 00 00 05 02 00 07  // ........xi......
    0810: 03 00 00 35 09 00 00 00 00 00 00 00 00 00 00 00  // ...5............
    0820: 00 00 00 00 00 1F 10 00 00 00 00 00 78 69 00 00  // ............xi..
    0830: 05 02 00 07 03 00 00 21 0B 00 00 00 00 00 00 00  // .......!........
    0840: 00 00 00 00 00 00 00 00 00 1F 11 00 00 00 00 00  // ................
    0850: 78 69 00 00 05 02 00 07 03 00 00 2F 0F 00 00 00  // xi........./....
    0860: 00 00 00 00 00 00 00 00 00 00 00 00 00 1F 18 00  // ................
    0870: 00 00 00 00 78 69 00 00 05 02 00 07 03 00 00 2A  // ....xi.........*
    0880: 14 00 00 00 00 00 00 00 00 00 00 00 00 00 00 00  // ................
    0890: 00 1F 00 00 00 00 00 00 F0 D2 00 00 05 02 00 07  // ................
    08A0: 03 00 00 1D 00 00 00 00 00 00 00 00 00 00 00 00  // ................
    08B0: 00 00 00 00 00 1F 01 00 00 00 00 00 F0 D2 00 00  // ................
    08C0: 05 02 00 07 03 00 00 26 00 00 00 00 00 00 00 00  // .......&........
    08D0: 00 00 00 00 00 00 00 00 00 1F 02 00 00 00 00 00  // ................
    08E0: F0 D2 00 00 05 02 00 07 03 00 00 30 00 00 00 00  // ...........0....
    08F0: 00 00 00 00 00 00 00 00 00 00 00 00 00 1F 03 00  // ................
    0900: 00 00 00 00 F0 D2 00 00 05 02 00 07 03 00 00 3E  // ...............>
    0910: 00 00 00 00 00 00 00 00 00 00 00 00 00 00 00 00  // ................
    0920: 00 1F 08 00 00 00 00 00 F0 D2 00 00 05 02 00 07  // ................
    0930: 03 00 00 22 04 00 00 00 00 00 00 00 00 00 00 00  // ..."............
    0940: 00 00 00 00 00 1F 09 00 00 00 00 00 F0 D2 00 00  // ................
    0950: 05 02 00 07 03 00 00 2C 06 00 00 00 00 00 00 00  // .......,........
    0960: 00 00 00 00 00 00 00 00 00 1F 0A 00 00 00 00 00  // ................
    0970: F0 D2 00 00 05 02 00 07 03 00 00 37 07 00 00 00  // ...........7....
    0980: 00 00 00 00 00 00 00 00 00 00 00 00 00 1F 10 00  // ................
    0990: 00 00 00 00 F0 D2 00 00 05 02 00 07 03 00 00 27  // ...............'
    09A0: 09 00 00 00 00 00 00 00 00 00 00 00 00 00 00 00  // ................
    09B0: 00 1F 11 00 00 00 00 00 F0 D2 00 00 05 02 00 07  // ................
    09C0: 03 00 00 32 0C 00 00 00 00 00 00 00 00 00 00 00  // ...2............
    09D0: 00 00 00 00 00 1F 18 00 00 00 00 00 F0 D2 00 00  // ................
    09E0: 05 02 00 07 03 00 00 2E 10 00 00 00 00 00 00 00  // ................
    09F0: 00 00 00 00 00 00 00 00 00 1F 00 00 00 00 00 00  // ................
    0A00: 68 3C 01 00 05 02 00 07 03 00 00 1D 00 00 00 00  // h<..............
    0A10: 00 00 00 00 00 00 00 00 00 00 00 00 00 1F 01 00  // ................
    0A20: 00 00 00 00 68 3C 01 00 05 02 00 07 03 00 00 26  // ....h<.........&
    0A30: 00 00 00 00 00 00 00 00 00 00 00 00 00 00 00 00  // ................
    0A40: 00 1F 02 00 00 00 00 00 68 3C 01 00 05 02 00 07  // ........h<......
    0A50: 03 00 00 30 00 00 00 00 00 00 00 00 00 00 00 00  // ...0............
    0A60: 00 00 00 00 00 1F 03 00 00 00 00 00 68 3C 01 00  // ............h<..
    0A70: 05 02 00 07 03 00 00 3E 00 00 00 00 00 00 00 00  // .......>........
    0A80: 00 00 00 00 00 00 00 00 00 1F 08 00 00 00 00 00  // ................
    0A90: 68 3C 01 00 05 02 00 07 03 00 00 22 04 00 00 00  // h<........."....
    0AA0: 00 00 00 00 00 00 00 00 00 00 00 00 00 1F 09 00  // ................
    0AB0: 00 00 00 00 68 3C 01 00 05 02 00 07 03 00 00 2C  // ....h<.........,
    0AC0: 06 00 00 00 00 00 00 00 00 00 00 00 00 00 00 00  // ................
    0AD0: 00 1F 0A 00 00 00 00 00 68 3C 01 00 05 02 00 07  // ........h<......
    0AE0: 03 00 00 37 07 00 00 00 00 00 00 00 00 00 00 00  // ...7............
    0AF0: 00 00 00 00 00 1F 10 00 00 00 00 00 68 3C 01 00  // ............h<..
    0B00: 05 02 00 07 03 00 00 27 09 00 00 00 00 00 00 00  // .......'........
    0B10: 00 00 00 00 00 00 00 00 00 1F 11 00 00 00 00 00  // ................
    0B20: 68 3C 01 00 05 02 00 07 03 00 00 32 0C 00 00 00  // h<.........2....
    0B30: 00 00 00 00 00 00 00 00 00 00 00 00 00 1F 18 00  // ................
    0B40: 00 00 00 00 68 3C 01 00 05 02 00 07 03 00 00 2E  // ....h<..........
    0B50: 10 00 00 00 00 00 00 00 00 00 00 00 00 00 00 00  // ................
    0B60: 08 1F 00 00 00 00 00 00 A0 86 01 00 05 02 00 07  // ................
    0B70: 03 00 00 3E 00 00 00 00 00 00 00 00 00 00 00 00  // ...>............
    0B80: 00 00 00 00 08 1F 01 00 00 00 00 00 A0 86 01 00  // ................
    0B90: 05 02 00 07 03 00 00 38 06 00 00 00 00 00 00 00  // .......8........
    0BA0: 00 00 00 00 00 00 00 00 08 1F 02 00 00 00 00 00  // ................
    0BB0: A0 86 01 00 05 02 00 07 03 00 00 33 0B 00 00 00  // ...........3....
    0BC0: 00 00 00 00 00 00 00 00 00 00 00 00 08 1F 03 00  // ................
    0BD0: 00 00 00 00 A0 86 01 00 05 02 00 07 03 00 00 30  // ...............0
    0BE0: 0E 00 00 00 00 00 00 00 00 00 00 00 00 00 00 00  // ................
    0BF0: 08 1F 04 00 00 00 00 00 A0 86 01 00 05 02 00 07  // ................
    0C00: 03 00 00 2B 13 00 00 00 00 00 00 00 00 00 00 00  // ...+............
    0C10: 00 00 00 00 08 1F 05 00 00 00 00 00 A0 86 01 00  // ................
    0C20: 05 02 00 07 03 00 03 3B 00 00 00 00 00 00 00 00  // .......;........
    0C30: 00 00 00 00 00 00 00 00 08 1F 06 00 00 00 00 00  // ................
    0C40: A0 86 01 00 05 02 00 07 03 00 03 35 06 00 00 00  // ...........5....
    0C50: 00 00 00 00 00 00 00 00 00 00 00 00 08 1F 07 00  // ................
    0C60: 00 00 00 00 A0 86 01 00 05 02 00 07 03 00 03 31  // ...............1
    0C70: 0A 00 00 00 00 00 00 00 00 00 00 00 00 00 00 00  // ................
    0C80: 08 1F 08 00 00 00 00 00 A0 86 01 00 05 02 00 07  // ................
    0C90: 03 00 03 2D 0E 00 00 00 00 00 00 00 00 00 00 00  // ...-............
    0CA0: 00 00 00 00 08 1F 09 00 00 00 00 00 A0 86 01 00  // ................
    0CB0: 05 02 00 07 03 00 03 2A 11 00 00 00 00 00 00 00  // .......*........
    0CC0: 00 00 00 00 00 00 00 00 08 1F 0A 00 00 00 00 00  // ................
    0CD0: A0 86 01 00 05 02 00 07 03 00 06 38 00 00 00 00  // ...........8....
    0CE0: 00 00 00 00 00 00 00 00 00 00 00 00 08 1F 0B 00  // ................
    0CF0: 00 00 00 00 A0 86 01 00 05 02 00 07 03 00 06 32  // ...............2
    0D00: 06 00 00 00 00 00 00 00 00 00 00 00 00 00 00 00  // ................
    0D10: 08 1F 0C 00 00 00 00 00 A0 86 01 00 05 02 00 07  // ................
    0D20: 03 00 06 2F 09 00 00 00 00 00 00 00 00 00 00 00  // .../............
    0D30: 00 00 00 00 08 1F 0D 00 00 00 00 00 A0 86 01 00  // ................
    0D40: 05 02 00 07 03 00 06 2B 0D 00 00 00 00 00 00 00  // .......+........
    0D50: 00 00 00 00 00 00 00 00 08 1F 0E 00 00 00 00 00  // ................
    0D60: A0 86 01 00 05 02 00 07 03 00 0A 33 00 00 00 00  // ...........3....
    0D70: 00 00 00 00 00 00 00 00 00 00 00 00 08 1F 0F 00  // ................
    0D80: 00 00 00 00 A0 86 01 00 05 02 00 07 03 00 03 22  // ..............."
    0D90: 03 00 00 00 00 00 00 00 00 00 00 00 00 00 00 00  // ................
    0DA0: 00 1F 00 00 00 00 00 00 60 54 00 00 05 02 00 07  // ........`T......
    0DB0: 03 00 00 1E 00 00 00 00 00 00 00 00 00 00 00 00  // ................
    0DC0: 00 00 00 00 00 1F 01 00 00 00 00 00 60 54 00 00  // ............`T..
    0DD0: 05 02 00 07 03 00 00 26 00 00 00 00 00 00 00 00  // .......&........
    0DE0: 00 00 00 00 00 00 00 00 00 1F 02 00 00 00 00 00  // ................
    0DF0: 60 54 00 00 05 02 00 07 03 00 00 30 00 00 00 00  // `T.........0....
    0E00: 00 00 00 00 00 00 00 00 00 00 00 00 00 1F 03 00  // ................
    0E10: 00 00 00 00 60 54 00 00 05 02 00 07 03 00 00 3E  // ....`T.........>
    0E20: 00 00 00 00 00 00 00 00 00 00 00 00 00 00 00 00  // ................
    0E30: 00 1F 08 00 00 00 00 00 60 54 00 00 05 02 00 07  // ........`T......
    0E40: 03 00 00 22 04 00 00 00 00 00 00 00 00 00 00 00  // ..."............
    0E50: 00 00 00 00 00 1F 09 00 00 00 00 00 60 54 00 00  // ............`T..
    0E60: 05 02 00 07 03 00 00 2C 06 00 00 00 00 00 00 00  // .......,........
    0E70: 00 00 00 00 00 00 00 00 00 1F 0A 00 00 00 00 00  // ................
    0E80: 60 54 00 00 05 02 00 07 03 00 00 37 07 00 00 00  // `T.........7....
    0E90: 00 00 00 00 00 00 00 00 00 00 00 00 00 1F 10 00  // ................
    0EA0: 00 00 00 00 60 54 00 00 05 02 00 07 03 00 00 27  // ....`T.........'
    0EB0: 09 00 00 00 00 00 00 00 00 00 00 00 00 00 00 00  // ................
    0EC0: 00 1F 11 00 00 00 00 00 60 54 00 00 05 02 00 07  // ........`T......
    0ED0: 03 00 00 32 0C 00 00 00 00 00 00 00 00 00 00 00  // ...2............
    0EE0: 00 00 00 00 00 1F 18 00 00 00 00 00 60 54 00 00  // ............`T..
    0EF0: 05 02 00 07 03 00 00 2E 10 00 00 00 00 00 00 00  // ................
    0F00: 00 00 00 00 00 00 00 00 00 1F 00 00 00 00 00 00  // ................
    0F10: EC 5E 00 00 05 02 00 07 03 00 00 1E 00 00 00 00  // .^..............
    0F20: 00 00 00 00 00 00 00 00 00 00 00 00 00 1F 01 00  // ................
    0F30: 00 00 00 00 EC 5E 00 00 05 02 00 07 03 00 00 26  // .....^.........&
    0F40: 00 00 00 00 00 00 00 00 00 00 00 00 00 00 00 00  // ................
    0F50: 00 1F 02 00 00 00 00 00 EC 5E 00 00 05 02 00 07  // .........^......
    0F60: 03 00 00 30 00 00 00 00 00 00 00 00 00 00 00 00  // ...0............
    0F70: 00 00 00 00 00 1F 03 00 00 00 00 00 EC 5E 00 00  // .............^..
    0F80: 05 02 00 07 03 00 00 3E 00 00 00 00 00 00 00 00  // .......>........
    0F90: 00 00 00 00 00 00 00 00 00 1F 08 00 00 00 00 00  // ................
    0FA0: EC 5E 00 00 05 02 00 07 03 00 00 22 04 00 00 00  // .^........."....
    0FB0: 00 00 00 00 00 00 00 00 00 00 00 00 00 1F 09 00  // ................
    0FC0: 00 00 00 00 EC 5E 00 00 05 02 00 07 03 00 00 2C  // .....^.........,
    0FD0: 06 00 00 00 00 00 00 00 00 00 00 00 00 00 00 00  // ................
    0FE0: 00 1F 0A 00 00 00 00 00 EC 5E 00 00 05 02 00 07  // .........^......
    0FF0: 03 00 00 37 07 00 00 00 00 00 00 00 00 00 00 00  // ...7............
    1000: 00 00 00 00 00 1F 10 00 00 00 00 00 EC 5E 00 00  // .............^..
    1010: 05 02 00 07 03 00 00 27 09 00 00 00 00 00 00 00  // .......'........
    1020: 00 00 00 00 00 00 00 00 00 1F 11 00 00 00 00 00  // ................
    1030: EC 5E 00 00 05 02 00 07 03 00 00 32 0C 00 00 00  // .^.........2....
    1040: 00 00 00 00 00 00 00 00 00 00 00 00 00 1F 18 00  // ................
    1050: 00 00 00 00 EC 5E 00 00 05 02 00 07 03 00 00 2E  // .....^..........
    1060: 10 00 00 00 00 00 00 00 00 00 00 00 00 00 00 00  // ................
    1070: 00 1F 00 00 00 00 00 00 90 7E 00 00 05 02 00 07  // .........~......
    1080: 03 00 00 1E 00 00 00 00 00 00 00 00 00 00 00 00  // ................
    1090: 00 00 00 00 00 1F 01 00 00 00 00 00 90 7E 00 00  // .............~..
    10A0: 05 02 00 07 03 00 00 26 00 00 00 00 00 00 00 00  // .......&........
    10B0: 00 00 00 00 00 00 00 00 00 1F 02 00 00 00 00 00  // ................
    10C0: 90 7E 00 00 05 02 00 07 03 00 00 30 00 00 00 00  // .~.........0....
    10D0: 00 00 00 00 00 00 00 00 00 00 00 00 00 1F 03 00  // ................
    10E0: 00 00 00 00 90 7E 00 00 05 02 00 07 03 00 00 3E  // .....~.........>
    10F0: 00 00 00 00 00 00 00 00 00 00 00 00 00 00 00 00  // ................
    1100: 00 1F 08 00 00 00 00 00 90 7E 00 00 05 02 00 07  // .........~......
    1110: 03 00 00 22 04 00 00 00 00 00 00 00 00 00 00 00  // ..."............
    1120: 00 00 00 00 00 1F 09 00 00 00 00 00 90 7E 00 00  // .............~..
    1130: 05 02 00 07 03 00 00 2C 06 00 00 00 00 00 00 00  // .......,........
    1140: 00 00 00 00 00 00 00 00 00 1F 0A 00 00 00 00 00  // ................
    1150: 90 7E 00 00 05 02 00 07 03 00 00 37 07 00 00 00  // .~.........7....
    1160: 00 00 00 00 00 00 00 00 00 00 00 00 00 1F 10 00  // ................
    1170: 00 00 00 00 90 7E 00 00 05 02 00 07 03 00 00 27  // .....~.........'
    1180: 09 00 00 00 00 00 00 00 00 00 00 00 00 00 00 00  // ................
    1190: 00 1F 11 00 00 00 00 00 90 7E 00 00 05 02 00 07  // .........~......
    11A0: 03 00 00 32 0C 00 00 00 00 00 00 00 00 00 00 00  // ...2............
    11B0: 00 00 00 00 00 1F 18 00 00 00 00 00 90 7E 00 00  // .............~..
    11C0: 05 02 00 07 03 00 00 2E 10 00 00 00 00 00 00 00  // ................
    11D0: 00 00 00 00 00 00 00 00 00 1F 00 00 00 00 00 00  // ................
    11E0: C0 A8 00 00 05 02 00 07 03 00 00 1E 00 00 00 00  // ................
    11F0: 00 00 00 00 00 00 00 00 00 00 00 00 00 1F 01 00  // ................
    1200: 00 00 00 00 C0 A8 00 00 05 02 00 07 03 00 00 26  // ...............&
    1210: 00 00 00 00 00 00 00 00 00 00 00 00 00 00 00 00  // ................
    1220: 00 1F 02 00 00 00 00 00 C0 A8 00 00 05 02 00 07  // ................
    1230: 03 00 00 30 00 00 00 00 00 00 00 00 00 00 00 00  // ...0............
    1240: 00 00 00 00 00 1F 03 00 00 00 00 00 C0 A8 00 00  // ................
    1250: 05 02 00 07 03 00 00 3E 00 00 00 00 00 00 00 00  // .......>........
    1260: 00 00 00 00 00 00 00 00 00 1F 08 00 00 00 00 00  // ................
    1270: C0 A8 00 00 05 02 00 07 03 00 00 22 04 00 00 00  // ..........."....
    1280: 00 00 00 00 00 00 00 00 00 00 00 00 00 1F 09 00  // ................
    1290: 00 00 00 00 C0 A8 00 00 05 02 00 07 03 00 00 2C  // ...............,
    12A0: 06 00 00 00 00 00 00 00 00 00 00 00 00 00 00 00  // ................
    12B0: 00 1F 0A 00 00 00 00 00 C0 A8 00 00 05 02 00 07  // ................
    12C0: 03 00 00 37 07 00 00 00 00 00 00 00 00 00 00 00  // ...7............
    12D0: 00 00 00 00 00 1F 10 00 00 00 00 00 C0 A8 00 00  // ................
    12E0: 05 02 00 07 03 00 00 27 09 00 00 00 00 00 00 00  // .......'........
    12F0: 00 00 00 00 00 00 00 00 00 1F 11 00 00 00 00 00  // ................
    1300: C0 A8 00 00 05 02 00 07 03 00 00 32 0C 00 00 00  // ...........2....
    1310: 00 00 00 00 00 00 00 00 00 00 00 00 00 1F 18 00  // ................
    1320: 00 00 00 00 C0 A8 00 00 05 02 00 07 03 00 00 2E  // ................
    1330: 10 00 00 00 00 00 00 00 00 00 00 00 00 00 00 00  // ................
    1340: 00 1F 00 00 00 00 00 00 20 FD 00 00 05 02 00 07  // ........ .......
    1350: 03 00 00 1E 00 00 00 00 00 00 00 00 00 00 00 00  // ................
    1360: 00 00 00 00 00 1F 01 00 00 00 00 00 20 FD 00 00  // ............ ...
    1370: 05 02 00 07 03 00 00 26 00 00 00 00 00 00 00 00  // .......&........
    1380: 00 00 00 00 00 00 00 00 00 1F 02 00 00 00 00 00  // ................
    1390: 20 FD 00 00 05 02 00 07 03 00 00 30 00 00 00 00  //  ..........0....
    13A0: 00 00 00 00 00 00 00 00 00 00 00 00 00 1F 03 00  // ................
    13B0: 00 00 00 00 20 FD 00 00 05 02 00 07 03 00 00 3E  // .... ..........>
    13C0: 00 00 00 00 00 00 00 00 00 00 00 00 00 00 00 00  // ................
    13D0: 00 1F 08 00 00 00 00 00 20 FD 00 00 05 02 00 07  // ........ .......
    13E0: 03 00 00 22 04 00 00 00 00 00 00 00 00 00 00 00  // ..."............
    13F0: 00 00 00 00 00 1F 09 00 00 00 00 00 20 FD 00 00  // ............ ...
    1400: 05 02 00 07 03 00 00 2C 06 00 00 00 00 00 00 00  // .......,........
    1410: 00 00 00 00 00 00 00 00 00 1F 0A 00 00 00 00 00  // ................
    1420: 20 FD 00 00 05 02 00 07 03 00 00 37 07 00 00 00  //  ..........7....
    1430: 00 00 00 00 00 00 00 00 00 00 00 00 00 1F 10 00  // ................
    1440: 00 00 00 00 20 FD 00 00 05 02 00 07 03 00 00 27  // .... ..........'
    1450: 09 00 00 00 00 00 00 00 00 00 00 00 00 00 00 00  // ................
    1460: 00 1F 11 00 00 00 00 00 20 FD 00 00 05 02 00 07  // ........ .......
    1470: 03 00 00 32 0C 00 00 00 00 00 00 00 00 00 00 00  // ...2............
    1480: 00 00 00 00 00 1F 18 00 00 00 00 00 20 FD 00 00  // ............ ...
    1490: 05 02 00 07 03 00 00 2E 10 00 00 00 00 00 00 00  // ................
    14A0: 00 00 00 00 00 00 00 00 00 1F 00 00 00 00 00 00  // ................
    14B0: AC 07 01 00 05 02 00 07 03 00 00 1E 00 00 00 00  // ................
    14C0: 00 00 00 00 00 00 00 00 00 00 00 00 00 1F 01 00  // ................
    14D0: 00 00 00 00 AC 07 01 00 05 02 00 07 03 00 00 26  // ...............&
    14E0: 00 00 00 00 00 00 00 00 00 00 00 00 00 00 00 00  // ................
    14F0: 00 1F 02 00 00 00 00 00 AC 07 01 00 05 02 00 07  // ................
    1500: 03 00 00 30 00 00 00 00 00 00 00 00 00 00 00 00  // ...0............
    1510: 00 00 00 00 00 1F 03 00 00 00 00 00 AC 07 01 00  // ................
    1520: 05 02 00 07 03 00 00 3E 00 00 00 00 00 00 00 00  // .......>........
    1530: 00 00 00 00 00 00 00 00 00 1F 08 00 00 00 00 00  // ................
    1540: AC 07 01 00 05 02 00 07 03 00 00 22 04 00 00 00  // ..........."....
    1550: 00 00 00 00 00 00 00 00 00 00 00 00 00 1F 09 00  // ................
    1560: 00 00 00 00 AC 07 01 00 05 02 00 07 03 00 00 2C  // ...............,
    1570: 06 00 00 00 00 00 00 00 00 00 00 00 00 00 00 00  // ................
    1580: 00 1F 0A 00 00 00 00 00 AC 07 01 00 05 02 00 07  // ................
    1590: 03 00 00 37 07 00 00 00 00 00 00 00 00 00 00 00  // ...7............
    15A0: 00 00 00 00 00 1F 10 00 00 00 00 00 AC 07 01 00  // ................
    15B0: 05 02 00 07 03 00 00 27 09 00 00 00 00 00 00 00  // .......'........
    15C0: 00 00 00 00 00 00 00 00 00 1F 11 00 00 00 00 00  // ................
    15D0: AC 07 01 00 05 02 00 07 03 00 00 32 0C 00 00 00  // ...........2....
    15E0: 00 00 00 00 00 00 00 00 00 00 00 00 00 1F 18 00  // ................
    15F0: 00 00 00 00 AC 07 01 00 05 02 00 07 03 00 00 2E  // ................
    1600: 10 00 00 00 00 00 00 00 00 00 00 00 00 00 00 00  // ................
    1610: 02 1F 00 00 00 00 00 00 30 75 00 00 05 02 00 07  // ........0u......
    1620: 00 00 00 3E 00 00 00 04 00 00 00 00 00 00 00 00  // ...>............
    1630: 00 00 00 00 02 1F 00 00 00 00 00 00 40 9C 00 00  // ............@...
    1640: 05 02 00 07 00 00 00 3E 00 00 00 00 00 00 00 00  // .......>........
    1650: 00 00 00 00 00 00 00 00 02 1F 00 00 00 00 00 00  // ................
    1660: 60 EA 00 00 05 02 00 07 00 00 00 3E 00 00 00 00  // `..........>....
    1670: 00 00 00 00 00 00 00 00 00 00 00 00 03 1F 00 00  // ................
    1680: 00 00 00 00 30 75 00 00 05 02 00 07 00 00 00 3E  // ....0u.........>
    1690: 00 00 00 0F 00 00 00 00 00 00 00 00 00 00 00 00  // ................
    16A0: 03 1F 00 00 00 00 00 00 40 9C 00 00 05 02 00 07  // ........@.......
    16B0: 00 00 00 3E 00 00 00 00 00 00 00 00 00 00 00 00  // ...>............
    16C0: 00 00 00 00 03 1F 00 00 00 00 00 00 60 EA 00 00  // ............`...
    16D0: 05 02 00 07 00 00 00 3E 00 00 00 00 00 00 00 00  // .......>........
    16E0: 00 00 00 00 00 00 00 00 04 1F 00 00 00 00 00 00  // ................
    16F0: 30 75 00 00 05 02 00 07 03 00 05 31 08 00 00 00  // 0u.........1....
    1700: 00 00 00 00 00 00 00 00 00 00 00 00 04 1F 01 00  // ................
    1710: 00 00 00 00 30 75 00 00 05 02 00 07 03 00 05 2F  // ....0u........./
    1720: 0A 00 00 00 00 00 00 00 00 00 00 00 00 00 00 00  // ................
    1730: 04 1F 02 00 00 00 00 00 30 75 00 00 05 02 00 07  // ........0u......
    1740: 03 00 05 2C 0D 00 00 00 00 00 00 00 00 00 00 00  // ...,............
    1750: 00 00 00 00 04 1F 03 00 00 00 00 00 30 75 00 00  // ............0u..
    1760: 05 02 00 07 03 00 05 29 10 00 00 00 00 00 00 00  // .......)........
    1770: 00 00 00 00 00 00 00 00 04 1F 00 00 00 00 00 00  // ................
    1780: 60 EA 00 00 05 02 00 07 03 00 05 31 08 00 00 00  // `..........1....
    1790: 00 00 00 00 00 00 00 00 00 00 00 00 04 1F 01 00  // ................
    17A0: 00 00 00 00 60 EA 00 00 05 02 00 07 03 00 05 2F  // ....`........../
    17B0: 0A 00 00 00 00 00 00 00 00 00 00 00 00 00 00 00  // ................
    17C0: 04 1F 02 00 00 00 00 00 60 EA 00 00 05 02 00 07  // ........`.......
    17D0: 03 00 05 2C 0D 00 00 00 00 00 00 00 00 00 00 00  // ...,............
    17E0: 00 00 00 00 04 1F 03 00 00 00 00 00 60 EA 00 00  // ............`...
    17F0: 05 02 00 07 03 00 05 29 10 00 00 00 00 00 00 00  // .......)........
    1800: 00 00 00 00 00 00 00 00 04 1F 00 00 00 00 00 00  // ................
    1810: 80 38 01 00 05 02 00 07 03 00 05 31 08 00 00 00  // .8.........1....
    1820: 00 00 00 00 00 00 00 00 00 00 00 00 04 1F 01 00  // ................
    1830: 00 00 00 00 80 38 01 00 05 02 00 07 03 00 05 2F  // .....8........./
    1840: 0A 00 00 00 00 00 00 00 00 00 00 00 00 00 00 00  // ................
    1850: 04 1F 02 00 00 00 00 00 80 38 01 00 05 02 00 07  // .........8......
    1860: 03 00 05 2C 0D 00 00 00 00 00 00 00 00 00 00 00  // ...,............
    1870: 00 00 00 00 04 1F 03 00 00 00 00 00 80 38 01 00  // .............8..
    1880: 05 02 00 07 03 00 05 29 10 00 00 00 00 00 00 00  // .......)........
    1890: 00 00 00 00 00 00 00 00 04 1F 00 00 00 00 00 00  // ................
    18A0: A0 86 01 00 05 02 00 07 03 00 05 31 08 00 00 00  // ...........1....
    18B0: 00 00 00 00 00 00 00 00 00 00 00 00 04 1F 01 00  // ................
    18C0: 00 00 00 00 A0 86 01 00 05 02 00 07 03 00 05 2F  // .............../
    18D0: 0A 00 00 00 00 00 00 00 00 00 00 00 00 00 00 00  // ................
    18E0: 04 1F 02 00 00 00 00 00 A0 86 01 00 05 02 00 07  // ................
    18F0: 03 00 05 2C 0D 00 00 00 00 00 00 00 00 00 00 00  // ...,............
    1900: 00 00 00 00 04 1F 03 00 00 00 00 00 A0 86 01 00  // ................
    1910: 05 02 00 07 03 00 05 29 10 00 00 00 00 00 00 00  // .......)........
    1920: 00 00 00 00 00 00 00 00 04 1F 00 00 00 00 00 00  // ................
    1930: C0 D4 01 00 05 02 00 07 03 00 05 31 08 00 00 00  // ...........1....
    1940: 00 00 00 00 00 00 00 00 00 00 00 00 04 1F 01 00  // ................
    1950: 00 00 00 00 C0 D4 01 00 05 02 00 07 03 00 05 2F  // .............../
    1960: 0A 00 00 00 00 00 00 00 00 00 00 00 00 00 00 00  // ................
    1970: 04 1F 02 00 00 00 00 00 C0 D4 01 00 05 02 00 07  // ................
    1980: 03 00 05 2C 0D 00 00 00 00 00 00 00 00 00 00 00  // ...,............
    1990: 00 00 00 00 04 1F 03 00 00 00 00 00 C0 D4 01 00  // ................
    19A0: 05 02 00 07 03 00 05 29 10 00 00 00 00 00 00 00  // .......)........
    19B0: 00 00 00 00 00 00 00 00 00 00 00 00 00 00 00 00  // ................
    19C0: 00 00 00 00 00 00 00 00 00 00 00 00 00 00 00 00  // ................
    19D0: 00 00 00 00 00 00 00 00 00 00 00 00 00 00 00 00  // ................
    19E0: 00 00 00 00 00 00 00 00 00 00 00 00 00 00 00 00  // ................
    19F0: 00 00 00 00 00 00 00 00 00 00 00 00 00 00 00 00  // ................
    1A00: 00 00 00 00 00 00 00 00 00 00 00 00 00 00 00 00  // ................
    1A10: 00 00 00 00 00 00 00 00 00 00 00 00 00 00 00 00  // ................
    1A20: 00 00 00 00 00 00 00 00 00 00 00 00 00 00 00 00  // ................
    1A30: 00 00 00 00 00 00 00 00 00 00 00 00 00 00 00 00  // ................
    1A40: 00 00 00 00 00 00 00 00 00 00 00 00 00 00 00 00  // ................
    1A50: 00 00 00 00 00 00 00 00 00 00 00 00 00 00 00 00  // ................
    1A60: 00 00 00 00 00 00 00 00 00 00 00 00 00 00 00 00  // ................
    1A70: 00 00 00 00 00 00 00 00 00 00 00 00 00 00 00 00  // ................
    1A80: 00 00 00 00 00 00 00 00 00 00 00 00 00 00 00 00  // ................
    1A90: 00 00 00 00 00 00 00 00 00 00 00 00 00 00 00 00  // ................
    1AA0: 00 00 00 00 00 00 00 00 00 00 00 00 00 00 00 00  // ................
    1AB0: 00 00 00 00 00 00 00 00 00 00 00 00 00 00 00 00  // ................
    1AC0: 00 00 00 00 00 00 00 00 00 00 00 00 00 00 00 00  // ................
    1AD0: 00 00 00 00 00 00 00 00 00 00 00 00 00 00 00 00  // ................
    1AE0: 00 00 00 00 00 00 00 00 00 00 00 00 00 00 00 00  // ................
    1AF0: 00 00 00 00 00 00 00 00 00 00 00 00 00 00 00 00  // ................
    1B00: 00 00 00 00 00 00 00 00 00 00 00 00 00 00 00 00  // ................
    1B10: 00 00 00 00 00 00 00 00 00 00 00 00 00 00 00 00  // ................
    1B20: 00 00 00 00 00 00 00 00 00 00 00 00 00 00 00 00  // ................
    1B30: 00 00 00 00 00 00 00 00 00 00 00 00 00 00 00 00  // ................
    1B40: 00 00 00 00 00 00 00 00 00 00 00 00 00 00 00 00  // ................
    1B50: 00 00 00 00 00 00 00 00 00 00 00 00 00 00 00 00  // ................
    1B60: 00 00 00 00 00 00 00 00 00 00 00 00 00 00 00 00  // ................
    1B70: 00 00 00 00 00 00 00 00 00 00 00 00 00 00 00 00  // ................
    1B80: 00 00 00 00 00 00 00 00 00 00 00 00 00 00 00 00  // ................
    1B90: 00 00 00 00 00 00 00 00 00 00 00 00 00 00 00 00  // ................
    1BA0: 00 00 00 00 00 00 00 00 00 00 00 00 00 00 00 00  // ................
    1BB0: 00 00 00 00 00 00 00 00 00 00 00 00 00 00 00 00  // ................
    1BC0: 00 00 00 00 00 00 00 00 00 00 00 00 00 00 00 00  // ................
    1BD0: 00 00 00 00 00 00 00 00 00 00 00 00 00 00 00 00  // ................
    1BE0: 00 00 00 00 00 00 00 00 00 00 00 00 00 00 00 00  // ................
    1BF0: 00 00 00 00 00 00 00 00 00 00 00 00 00 00 00 00  // ................
    1C00: 00 00 00 00 00 00 00 00 00 00 00 00 00 00 00 00  // ................
    1C10: 00 00 00 00 00 00 00 00 00 00 00 00 00 00 00 00  // ................
    1C20: 00 00 00 00 00 00 00 00 00 00 00 00 00 00 00 00  // ................
    1C30: 00 00 00 00 00 00 00 00 00 00 00 00 00 00 00 00  // ................
    1C40: 00 00 00 00 00 00 00 00 00 00 00 00 00 00 00 00  // ................
    1C50: 00 00 00 00 00 00 00 00 00 00 00 00 00 00 00 00  // ................
    1C60: 00 00 00 00 00 00 00 00 00 00 00 00 00 00 00 00  // ................
    1C70: 00 00 00 00 00 00 00 00 00 00 00 00 00 00 00 00  // ................
    1C80: 00 00 00 00 00 00 00 00 00 00 00 00 00 00 00 00  // ................
    1C90: 00 00 00 00 00 00 00 00 00 00 00 00 00 00 00 00  // ................
    1CA0: 00 00 00 00 00 00 00 00 00 00 00 00 00 00 00 00  // ................
    1CB0: 00 00 00 00 00 00 00 00 00 00 00 00 00 00 00 00  // ................
    1CC0: 00 00 00 00 00 00 00 00 00 00 00 00 00 00 00 00  // ................
    1CD0: 00 00 00 00 00 00 00 00 00 00 00 00 00 00 00 00  // ................
    1CE0: 00 00 00 00 00 00 00 00 00 00 00 00 00 00 00 00  // ................
    1CF0: 00 00 00 00 00 00 00 00 00 00 00 00 00 00 00 00  // ................
    1D00: 00 00 00 00 00 00 00 00 00 00 00 00 00 00 00 00  // ................
    1D10: 00 00 00 00 00 00 00 00 00 00 00 00 00 00 00 00  // ................
    1D20: 00 00 00 00 00 00 00 00 00 00 00 00 00 00 00 00  // ................
    1D30: 00 00 00 00 00 00 00 00 00 00 00 00 00 00 00 00  // ................
    1D40: 00 00 00 00 00 00 00 00 00 00 00 00 00 00 00 00  // ................
    1D50: 00 00 00 00 00 00 00 00 00 00 00 00 00 00 00 00  // ................
    1D60: 00 00 00 00 00 00 00 00 00 00 00 00 00 00 00 00  // ................
    1D70: 00 00 00 00 00 00 00 00 00 00 00 00 00 00 00 00  // ................
    1D80: 00 00 00 00 00 00 00 00 00 00 00 00 00 00 00 00  // ................
    1D90: 00 00 00 00 00 00 00 00 00 00 00 00 00 00 00 00  // ................
    1DA0: 00 00 00 00 00 00 00 00 00 00 00 00 00 00 00 00  // ................
    1DB0: 00 00 00 00 00 00 00 00 00 00 00 00 00 00 00 00  // ................
    1DC0: 00 00 00 00 00 00 00 00 00 00 00 00 00 00 00 00  // ................
    1DD0: 00 00 00 00 00 00 00 00 00 00 00 00 00 00 00 00  // ................
    1DE0: 00 00 00 00 00 00 00 00 00 00 00 00 00 00 00 00  // ................
    1DF0: 50 00 03 01 20 4E 00 00 00 00 00 00 00 00 00 00  // P... N..........
    1E00: 7D 00 01 01 FF 00 00 00 00 00 00 00 00 00 00 00  // }...............
    1E10: 00 00 00 00 20 4E 00 00 00 00 00 00 00 00 00 00  // .... N..........
    1E20: 7D 00 01 01 FF 00 00 00 00 00 00 00 00 00 00 00  // }...............
    1E30: 00 00 00 00 00 00 00 00 00 00 00 00 00 00 00 00  // ................
    1E40: D4 00 04 04 40 06 00 00 24 F4 00 00 60 09 60 09  // ....@...$...`.`.
    1E50: 00 00 00 00 00 00 00 00 5E 01 4E 0C 01 01 00 00  // ........^.N.....
    1E60: 55 00 00 00 60 09 BF 15 01 03 04 01 00 05 05 00  // U...`...........
    1E70: 00 00 00 00 00 46 C3 23 00 00 00 00 00 00 00 00  // .....F.#........
    1E80: 00 00 00 00 54 00 01 00 00 00 03 0C 00 00 00 00  // ....T...........
    1E90: A0 00 00 00 10 11 3D 10 4D 1C 02 00 00 45 00 00  // ......=.M....E..
    1EA0: 00 00 00 00 00 00 00 00 00 00 00 00 00 00 AA 0A  // ................
    1EB0: 22 22 02 00 00 F0 01 00 00 00 00 00 00 00 00 00  // ""..............
    1EC0: 00 00 00 00 00 00 00 00 00 00 00 00 00 00 00 00  // ................
    1ED0: 00 00 00 00 00 00 00 00 00 00 00 00 00 00 00 00  // ................
    1EE0: 00 00 00 00 00 00 00 00 00 00 00 00 00 00 00 00  // ................
    1EF0: 00 00 00 00 00 00 00 00 00 00 00 00 00 00 00 00  // ................
    1F00: 00 00 00 00 00 00 00 00 00 00 00 00 00 00 00 00  // ................
    1F10: 00 00 00 00 54 00 02 01 B5 5D 00 00 00 00 01 00  // ....T....]......
    1F20: B5 5D 00 00 08 08 02 00 B5 5D 00 00 10 10 03 00  // .].......]......
    1F30: B5 5D 00 00 18 14 04 00 B5 5D 00 00 1A 18 05 00  // .].......]......
    1F40: 91 5D 00 00 08 08 90 00 95 5D 00 00 08 08 91 00  // .].......]......
    1F50: 99 5D 00 00 08 08 92 00 9D 5D 00 00 08 08 93 00  // .].......]......
    1F60: A1 5D 00 00 08 08 94 00 00 04 02 02 00 00 00 00  // .]..............
    1F70: 00 00 00 00 00 00 00 00 00 00 00 00 77 01 00 00  // ............w...
    1F80: 00 00 23 04 00 00 00 00 20 4E 00 00 00 00 00 00  // ..#..... N......
    1F90: 00 00 00 00 00 00 01 00 00 00 00 00 00 00 00 00  // ................
    1FA0: 00 00 00 00 00 00 00 00 20 4E 00 00 00 00 00 00  // ........ N......
    1FB0: 00 00 00 00 00 00 01 00 00 00 00 00 00 00 00 00  // ................
    1FC0: 00 00 00 00 00 00 00 00 00 00 00 00 00 00 00 00  // ................
    1FD0: 00 00 00 00 00 00 00 00 00 00 00 00 00 00 00 00  // ................
    1FE0: 00 00 00 00 00 00 00 00 8C 00 01 01 00 00 00 00  // ................
    1FF0: 00 00 00 00 00 00 00 00 00 00 00 00 02 00 10 01  // ................
    2000: 14 31 00 00 00 00 E4 00 00 00 00 00 08 00 10 02  // .1..............
    2010: 13 31 01 01 00 00 E4 00 00 00 30 00 80 00 20 02  // .1........0... .
    2020: 13 32 02 02 00 00 E4 00 02 01 30 20 00 02 30 02  // .2........0 ..0.
    2030: 13 33 03 03 00 00 E4 00 02 01 30 20 00 04 40 02  // .3........0 ..@.
    2040: 13 34 04 04 00 00 E4 00 00 01 30 00 00 00 00 00  // .4........0.....
    2050: 00 00 00 00 00 00 00 00 00 00 00 00 00 00 00 00  // ................
    2060: 00 00 00 00 00 00 00 00 00 00 00 00 00 00 00 00  // ................
    2070: 02 00 00 00 00 00 00 00 00 00 00 00 00 00 00 00  // ................
    2080: 00 00 00 00 00 00 00 00 00 00 00 00 00 00 00 00  // ................
    2090: 00 00 00 00 00 00 00 00 00 00 00 00 00 00 00 00  // ................
    20A0: 00 00 00 00 00 00 00 00 00 00 00 00 00 00 00 00  // ................
    20B0: 00 00 00 00 00 00 00 00 00 00 00 00 00 00 00 00  // ................
    20C0: 00 00 00 00 00 00 00 00 00 00 00 00 00 00 00 00  // ................
    20D0: 00 00 00 00 00 00 00 00 01 00 00 00 00 00 00 00  // ................
    20E0: 01 00 00 00 01 02 00 00 00 00 00 00 00 00 00 00  // ................
    20F0: 00 00 00 00 00 00 00 00 00 00 00 00 00 00 00 00  // ................
    2100: 00 00 00 00 00 00 00 00 00 00 00 00 00 00 00 00  // ................
    2110: 00 00 00 00 00 00 00 00 00 00 00 00 00 00 00 00  // ................
    2120: 00 00 00 00 00 00 00 00 00 00 00 00 00 00 00 00  // ................
    2130: 00 00 00 00 00 00 00 00 00 00 00 00 00 00 00 00  // ................
    2140: 00 00 00 00 00 00 00 00 00 00 00 00 00 00 00 00  // ................
    2150: 00 00 00 00 00 00 00 00 00 00 00 00 00 00 00 00  // ................
    2160: 00 00 00 00 00 00 00 00 00 00 00 00 00 00 00 00  // ................
    2170: 00 00 00 00 00 00 00 00 00 00 00 00 00 00 00 00  // ................
    2180: 00 00 00 00 00 00 00 00 00 00 00 00 00 00 00 00  // ................
    2190: 00 00 00 00 00 00 00 00 00 00 00 00 00 00 00 00  // ................
    21A0: 00 00 00 00 00 00 00 00 00 00 00 00 00 00 00 00  // ................
    21B0: 00 00 00 00 00 00 00 00 00 00 00 00 00 00 00 00  // ................
    21C0: 00 00 00 00 00 00 00 00 00 00 00 00 00 00 00 00  // ................
    21D0: 00 00 00 00 00 00 00 00 00 00 00 00 00 00 00 00  // ................
    21E0: 00 00 00 00 00 00 00 00 00 00 00 00 00 00 00 00  // ................
    21F0: 00 00 00 00 00 00 00 00 00 00 00 00 00 00 00 00  // ................
    2200: 00 00 00 00 00 00 00 00 00 00 00 00 00 00 00 00  // ................
    2210: 00 00 00 00 00 00 00 00 00 00 00 00 00 00 00 00  // ................
    2220: 00 00 00 00 00 00 00 00 00 00 00 00 00 00 00 00  // ................
    2230: 00 00 00 00 00 00 00 00 00 00 00 00 00 00 00 00  // ................
    2240: 00 00 00 00 00 00 00 00 00 00 00 00 00 00 00 00  // ................
    2250: 00 00 00 00 00 00 00 00 00 00 00 00 00 00 00 00  // ................
    2260: 00 00 00 00 00 00 00 00 00 00 00 00 00 00 00 00  // ................
    2270: 00 00 00 00 00 00 00 00 00 00 00 00 00 00 00 00  // ................
    2280: 00 00 00 00 00 00 00 00 00 00 00 00 00 00 00 00  // ................
    2290: 00 00 00 00 00 00 00 00 00 00 00 00 00 00 00 00  // ................
    22A0: 00 00 00 00 00 00 00 00 00 00 00 00 00 00 00 00  // ................
    22B0: 00 00 00 00 00 00 00 00 00 00 00 00 00 00 00 00  // ................
    22C0: 00 00 00 00 00 00 00 00 00 00 00 00 00 00 00 00  // ................
    22D0: 00 00 00 00 00 00 00 00 00 00 00 00 00 00 00 00  // ................
    22E0: 00 00 00 00 00 00 00 00 00 00 00 00 00 00 00 00  // ................
    22F0: 00 00 00 00 00 00 00 00 00 00 00 00 00 00 00 00  // ................
    2300: 00 00 00 00 00 00 00 00 00 00 00 00 00 00 00 00  // ................
    2310: 00 00 00 00 00 00 00 00 00 00 00 00 00 00 00 00  // ................
    2320: 00 00 00 00 00 00 00 00 00 00 00 00 00 00 00 00  // ................
    2330: 00 00 00 00 00 00 00 00 00 00 00 00 00 00 00 00  // ................
    2340: 00 00 00 00 00 00 00 00 00 00 00 00 00 00 00 00  // ................
    2350: 00 00 00 00 00 00 00 00 00 00 00 00 00 00 00 00  // ................
    2360: 00 00 00 00 00 00 00 00 CD 00 01 04 CF 0E 06 00  // ................
    2370: 14 31 68 00 1E 21 00 00 95 00 00 00 02 00 00 00  // .1h..!..........
    2380: 13 31 71 00 1E 22 00 00 9C 00 00 00 08 00 00 00  // .1q.."..........
    2390: 13 32 7A 00 20 21 00 00 A3 00 00 00 80 00 00 00  // .2z. !..........
    23A0: 13 33 83 00 20 22 00 00 AA 00 00 00 00 02 00 00  // .3.. "..........
    23B0: 13 34 8C 00 21 21 00 00 B1 00 00 00 00 04 00 00  // .4..!!..........
    23C0: 03 71 B8 00 00 00 00 00 00 00 00 00 00 00 00 00  // .q..............
    23D0: 01 04 90 00 02 04 01 00 FF 01 04 91 00 02 04 02  // ................
    23E0: 00 FF 01 04 92 00 02 04 03 00 FF 01 04 93 00 02  // ................
    23F0: 04 04 00 FF 01 04 94 00 02 04 05 00 FF 14 06 0F  // ................
    2400: 00 00 00 FF 14 06 3F 00 00 00 FF 14 06 3F 21 00  // ......?......?!.
    2410: 00 FF 14 06 3F 21 00 00 FF 14 06 3F 01 00 00 FF  // ....?!.....?....
    2420: 10 0A 01 02 03 04 05 06 07 08 11 0A 90 91 92 93  // ................
    2430: 94 95 96 97 FF 00 00 00 08 00 01 01 00 00 00 00  // ................
    2440: 70 01 02 01 D6 09 80 02 A0 00 E0 01 2D 00 10 00  // p...........-...
    2450: 60 00 0A 00 02 00 00 00 00 00 08 08 06 00 12 3C  // `..............<
    2460: A0 0F 20 03 00 01 58 02 1C 00 28 00 80 00 01 00  // .. ...X...(.....
    2470: 04 00 00 00 00 00 00 00 00 00 6A 3C 64 19 00 04  // ..........j<d...
    2480: 40 01 00 03 26 00 18 00 88 00 03 00 06 00 00 00  // @...&...........
    2490: 00 00 00 00 06 00 55 3C 01 1D 00 05 72 01 D0 02  // ......U<....r...
    24A0: 1E 00 6E 00 28 00 05 00 05 00 00 00 00 00 00 00  // ..n.(...........
    24B0: 00 00 E8 3C 30 2A 00 05 08 02 C0 03 28 00 60 00  // ...<0*......(.`.
    24C0: 70 00 01 00 03 00 00 00 00 00 00 00 00 00 E9 3C  // p..............<
    24D0: 30 2A 00 05 98 01 00 04 2A 00 30 00 70 00 01 00  // 0*......*.0.p...
    24E0: 03 00 00 00 00 00 00 00 00 00 EA 3C 66 21 56 05  // ...........<f!V.
    24F0: AA 01 00 03 1E 00 46 00 8F 00 03 00 03 00 00 00  // ......F.........
    2500: 00 00 00 00 02 00 ED 3C 8F 2F 78 05 D0 01 1A 04  // .......<./x.....
    2510: 27 00 58 00 90 00 03 00 04 00 00 00 00 00 00 00  // '.X.............
    2520: 02 00 EB 3C 48 3F 40 06 30 02 B0 04 32 00 40 00  // ...<H?@.0...2.@.
    2530: C0 00 01 00 03 00 00 00 00 00 00 00 00 00 EC 3C  // ...............<
    2540: 02 3A 80 07 18 01 38 04 2D 00 58 00 2C 00 04 00  // .:....8.-.X.,...
    2550: 05 00 00 00 00 00 00 00 02 00 F3 3C 7D 4B 80 07  // ...........<}K..
    2560: A0 02 B0 04 2D 00 88 00 C8 00 03 00 06 00 00 00  // ....-...........
    2570: 00 00 00 00 02 00 F0 3C 68 5B 80 07 A8 02 A0 05  // .......<h[......
    2580: 3C 00 80 00 D0 00 01 00 03 00 00 00 00 00 00 00  // <...............
    2590: 02 00 F1 3C 32 96 00 0A B0 03 40 06 3A 00 C0 00  // ...<2.....@.:...
    25A0: 18 01 03 00 06 00 00 00 00 00 00 00 02 00 F2 3C  // ...............<
    25B0: 34 00 02 01 00 00 00 00 00 2A 00 2A 00 00 2A 2A  // 4........*.*..**
    25C0: 2A 00 00 2A 00 2A 2A 15 00 2A 2A 2A 15 15 15 15  // *..*.**..***....
    25D0: 15 3F 15 3F 15 15 3F 3F 3F 15 15 3F 15 3F 3F 3F  // .?.?..???..?.???
    25E0: 15 3F 3F 3F A4 00 01 01 10 01 06 12 11 01 16 12  // .???............
    25F0: 21 01 0A 12 13 01 06 6A 14 01 16 6A 22 01 0A 6A  // !......j...j"..j
    2600: 16 01 06 55 17 01 16 55 23 01 0A 55 63 01 16 E8  // ...U...U#..Uc...
    2610: 64 01 0A E8 65 01 16 E9 66 01 0A E9 19 01 06 EA  // d...e...f.......
    2620: 1A 01 16 EA 24 01 0A EA 47 01 16 ED 48 01 0A ED  // ....$...G...H...
    2630: 45 01 16 EB 46 01 0A EB 75 01 16 EC 76 01 0A EC  // E...F...u...v...
    2640: A5 01 16 F3 A6 01 0A F3 A0 01 16 F0 A1 01 0A F0  // ................
    2650: A2 01 16 F1 A3 01 0A F1 A4 01 16 F2 A5 01 0A F2  // ................
    2660: D2 01 16 70 D4 01 0A 70 D8 01 16 71 D9 01 0A 71  // ...p...p...q...q
    2670: E2 01 16 72 E4 01 0A 72 E8 01 16 73 E9 01 0A 73  // ...r...r...s...s
    2680: F5 01 16 74 F6 01 0A 74 20 00 02 02 02 00 08 00  // ...t...t .......
    2690: 80 00 00 02 00 04 20 00 00 08 40 00 01 00 04 00  // ...... ...@.....
    26A0: 10 00 00 01 FF FF FF FF 0C 00 02 01 00 00 00 00  // ................
    26B0: 00 00 00 00 6C 00 03 04 10 00 0C 16 20 4E 00 00  // ....l....... N..
    26C0: 20 4E 00 00 01 00 00 00 40 04 00 00 4C 00 00 00  //  N......@...L...
    26D0: 00 00 00 00 00 00 00 00 00 00 01 00 80 00 00 00  // ................
    26E0: 00 00 00 00 00 00 00 00 00 00 00 00 00 00 00 00  // ................
    26F0: 00 00 00 00 00 00 00 00 00 00 00 00 00 00 00 00  // ................
    2700: 00 00 00 00 00 00 00 00 00 08 00 00 00 00 00 00  // ................
    2710: 00 00 00 00 00 00 00 00 00 00 00 00 8A 06 FC 13  // ................
    2720: 1C 00 03 01 00 0D 00 00 00 00 00 00 77 01 35 0C  // ............w.5.
    2730: C0 12 00 00 FF 00 FF 00 FF 00 00 00 88 00 03 00  // ................
    2740: 00 0B 01 00 04 02 02 02 83 14 01 00 84 14 01 00  // ................
    2750: 85 14 01 00 86 14 01 00 6F 14 01 00 32 14 01 00  // ........o...2...
    2760: 2E 6A 01 00 10 27 00 00 04 02 01 00 00 00 00 00  // .j...'..........
    2770: 00 00 00 00 01 00 00 00 00 00 00 00 00 00 00 00  // ................
    2780: 00 00 00 00 00 00 00 00 00 00 00 00 00 00 00 00  // ................
    2790: 00 00 00 00 00 00 00 00 00 00 00 00 00 00 00 00  // ................
    27A0: 00 00 00 00 00 00 00 00 00 00 00 00 00 00 00 00  // ................
    27B0: 00 00 00 00 00 00 00 00 00 00 00 00 00 00 00 00  // ................
    27C0: 00 00 00 00 00 00 00 00 A2 00 02 01 04 28 00 00  // .............(..
    27D0: 00 00 00 00 00 00 00 00 B8 2E 00 00 00 00 00 00  // ................
    27E0: 00 00 00 00 00 00 00 00 00 00 00 00 00 00 00 00  // ................
    27F0: 00 00 00 00 00 00 00 00 FC 29 00 00 00 00 00 00  // .........)......
    2800: 00 00 00 00 00 00 00 00 00 00 00 00 00 00 00 00  // ................
    2810: 00 00 00 00 00 00 00 00 00 00 00 00 00 00 00 00  // ................
    2820: 00 00 00 00 00 00 00 00 00 00 00 00 00 00 00 00  // ................
    2830: 00 00 00 00 00 00 A4 28 00 00 00 00 00 00 00 00  // .......(........
    2840: 00 00 00 00 00 00 00 00 00 00 00 00 00 00 00 00  // ................
    2850: 24 2A 00 00 00 00 00 00 00 00 00 00 00 00 00 00  // $*..............
    2860: 00 00 00 00 00 00 00 00 00 00 00 00 9E 00 02 01  // ................
    2870: 00 00 37 00 00 66 16 3E 0D 42 00 00 44 25 00 03  // ..7..f.>.B..D%..
    2880: 0C 41 04 00 4C 0D 41 02 00 44 25 00 0D 25 4C 00  // .A..L.A..D%..%L.
    2890: 02 52 16 01 01 35 39 01 01 01 36 39 02 01 05 0C  // .R...59...69....
    28A0: 00 5C A3 06 00 01 00 37 39 0D 00 03 01 41 01 15  // .\.....79....A..
    28B0: 05 41 18 01 02 C4 00 41 03 01 41 01 1B 05 41 08  // .A.....A..A...A.
    28C0: 01 02 C9 00 41 03 00 41 37 39 01 02 3B 39 41 03  // ....A..A79..;9A.
    28D0: 01 40 02 33 01 40 01 2D 02 40 41 01 02 3C 39 40  // .@.3.@.-.@A..<9@
    28E0: 03 00 41 E3 0D 3E 05 41 00 00 00 00 44 93 00 33  // ..A..>.A....D..3
    28F0: 05 41 01 00 00 00 1B 05 41 0B 01 02 06 00 41 0D  // .A......A.....A.
    2900: 25 20 0E 03 0D 65 53 00 02 5B 00 00 58 01 04 00  // % ...eS..[..X...
    2910: 0C 00 37 00 00 3D A5 04 01 44 E5 00 66 04 03 04  // ..7..=...D..f...
    2920: 46 28 00 3E 05 46 00 00 00 00 49 43 00 03 01 00  // F(.>.F....IC....
    2930: 00 03 01 01 01 03 01 02 02 52 16 03 01 46 00 1B  // .........R...F..
    2940: 05 46 08 02 02 00 00 02 02 01 01 02 02 02 02 3D  // .F.............=
    2950: 25 04 00 49 4E 00 2C 02 01 46 3D 65 04 00 49 59  // %..IN.,..F=e..IY
    2960: 00 2C 02 03 46 03 01 40 05 09 05 40 00 00 00 FC  // .,..F..@...@....
    2970: 3E 05 40 00 00 00 80 49 81 00 55 00 00 55 00 01  // >.@....I..U..U..
    2980: 01 05 0C 00 B8 51 04 00 01 01 0D 00 06 01 05 0C  // .....Q..........
    2990: 00 BC 51 04 00 01 05 0D 00 00 00 00 00 01 05 0C  // ..Q.............
    29A0: 00 A4 51 04 00 01 01 0D 00 00 01 05 0C 00 A8 51  // ..Q............Q
    29B0: 04 00 01 01 0D 00 01 01 05 0C 00 AC 51 04 00 01  // ............Q...
    29C0: 01 0D 00 02 01 05 0C 00 B0 51 04 00 01 01 0D 00  // .........Q......
    29D0: 03 01 05 0C 00 B4 51 04 00 01 01 0D 00 05 01 05  // ......Q.........
    29E0: 0C 00 C8 50 04 00 4A E5 0D 00 80 44 D2 00 43 57  // ...P..J....D..CW
    29F0: 01 01 05 0C 00 84 09 81 03 01 05 0D 00 00 00 07  // ................
    2A00: 00 01 05 0C 00 84 09 81 03 3C 05 0D 00 00 00 00  // .........<......
    2A10: 80 49 FD 00 01 05 0C 00 04 52 04 00 01 01 0D 00  // .I.......R......
    2A20: 00 01 05 0C 00 08 52 04 00 01 01 0D 00 01 01 05  // ......R.........
    2A30: 0C 00 00 52 04 00 03 00 41 0D 00 09 05 41 C1 FF  // ...R....A....A..
    2A40: FF FF 0F 05 41 15 00 00 00 01 05 0C 00 00 52 04  // ....A.........R.
    2A50: 00 01 02 0D 00 41 01 05 0C 00 A4 50 04 00 02 00  // .....A.....P....
    2A60: 06 0D 00 5B 28 00 02 01 00 00 37 00 00 01 05 0C  // ...[(.....7.....
    2A70: 00 B0 A3 06 00 02 00 00 0D 00 02 01 01 00 01 05  // ................
    2A80: 0C 00 B4 A3 06 00 02 00 02 0D 00 5B 94 04 01 02  // ...........[....
    2A90: 08 00 37 00 00 3D 25 00 00 44 05 01 4A 05 A3 36  // ..7..=%..D..J..6
    2AA0: 02 00 00 00 44 93 04 03 05 00 32 00 00 00 03 00  // ....D.....2.....
    2AB0: 40 97 36 03 00 41 96 36 03 05 46 00 31 00 00 04  // @.6..A.6..F.1...
    2AC0: 02 04 40 3E 02 41 40 49 42 00 04 02 05 40 03 03  // ..@>.A@IB....@..
    2AD0: 41 05 3E 02 41 40 48 5C 00 33 02 40 41 03 03 41  // A.>.A@H\.3.@A..A
    2AE0: 06 33 02 41 40 43 60 00 33 02 41 40 3E 05 41 00  // .3.A@C`.3.A@>.A.
    2AF0: 00 00 00 44 80 00 33 05 00 01 00 00 00 3E 05 00  // ...D..3......>..
    2B00: 00 00 00 00 44 93 04 51 14 43 22 00 03 03 40 05  // ....D..Q.C"...@.
    2B10: 03 02 41 40 2D 05 40 00 00 00 00 03 02 46 40 04  // ..A@-.@......F@.
    2B20: 01 00 00 04 01 01 01 04 01 02 02 04 01 03 03 04  // ................
    2B30: 01 04 04 04 01 05 05 04 01 06 06 2D 05 41 40 00  // ...........-.A@.
    2B40: 00 00 3E 05 41 00 20 00 00 45 C7 00 27 05 41 00  // ..>.A. ..E..'.A.
    2B50: 20 00 00 03 05 46 00 31 00 00 04 02 05 41 01 02  //  ....F.1.....A..
    2B60: 96 36 41 03 05 00 80 1A 06 00 03 00 41 97 36 03  // .6A.........A.6.
    2B70: 00 40 96 36 3E 02 41 40 44 93 04 33 05 00 01 00  // .@.6>.A@D..3....
    2B80: 00 00 3E 05 00 00 00 00 00 44 93 04 51 14 43 DE  // ..>......D..Q.C.
    2B90: 00 43 E7 01 3D 65 00 01 44 48 01 4A 05 B6 36 00  // .C..=e..DH.J..6.
    2BA0: 00 01 00 49 48 01 4A 05 C0 36 01 00 00 00 44 48  // ...IH.J..6....DH
    2BB0: 01 01 05 0C 00 84 09 81 03 01 05 0D 00 00 00 06  // ................
    2BC0: 00 01 05 0C 00 84 09 81 03 3C 05 0D 00 00 00 00  // .........<......
    2BD0: 80 49 3D 01 4A 05 C0 36 01 00 00 00 49 E7 01 01  // .I=.J..6....I...
    2BE0: 05 B8 36 00 00 02 10 03 05 41 0A 00 00 00 33 05  // ..6......A....3.
    2BF0: 41 01 00 00 00 3E 05 41 00 00 00 00 44 A5 01 51  // A....>.A....D..Q
    2C00: 0A 3C 05 B8 36 00 00 02 00 49 62 01 03 05 41 04  // .<..6....Ib...A.
    2C10: 00 00 00 51 0A 33 05 41 01 00 00 00 3E 05 41 00  // ...Q.3.A....>.A.
    2C20: 00 00 00 44 A5 01 3C 05 AA 36 AD DE AD DE 49 87  // ...D..<..6....I.
    2C30: 01 01 05 B8 36 00 00 00 00 0D 05 C0 36 01 00 00  // ....6.......6...
    2C40: 00 07 05 B6 36 FF FF FE FF 0D 05 02 38 00 01 00  // ....6.......8...
    2C50: 00 51 0A 01 05 97 36 00 00 00 00 01 05 96 36 00  // .Q....6.......6.
    2C60: 00 00 00 01 05 A3 36 00 00 00 00 07 05 02 38 FF  // ......6.......8.
    2C70: FE FF FF 66 0B 03 04 00 04 00 03 02 01 00 15 05  // ...f............
    2C80: 00 0A 1B 05 01 16 43 49 02 02 05 00 00 00 00 00  // ......CI........
    2C90: 02 02 02 00 2C 05 02 00 00 02 00 02 02 03 01 02  // ....,...........
    2CA0: 05 04 01 00 00 00 02 05 05 00 00 05 80 52 35 02  // .............R5.
    2CB0: 05 00 00 00 00 00 02 02 02 00 2C 05 02 00 00 00  // ..........,.....
    2CC0: 00 02 02 03 01 02 05 04 01 00 00 00 02 05 05 00  // ................
    2CD0: 20 00 80 52 35 66 16 3E 0D 42 00 00 44 C3 02 56  //  ..R5f.>.B..D..V
    2CE0: 00 41 03 0C 41 00 00 2D 05 41 0F 00 00 00 09 05  // .A..A..-.A......
    2CF0: 41 F0 FF 00 00 2D 0A 41 42 03 05 46 00 84 00 00  // A....-.AB..F....
    2D00: 56 08 42 04 04 00 00 00 2D 05 46 04 00 00 00 2D  // V.B.....-.F....-
    2D10: 05 42 04 00 00 00 3E 02 42 41 45 77 02 02 05 00  // .B....>.BAEw....
    2D20: 00 84 00 00 2C 02 00 00 02 02 02 00 2C 05 02 00  // ....,.......,...
    2D30: 00 02 00 02 02 03 01 02 02 01 01 02 05 04 00 00  // ................
    2D40: 00 00 02 05 05 00 00 00 40 02 0A 05 41 52 35 52  // ........@...AR5R
    2D50: 16 02 01 02 00 14 05 00 18 1A 05 02 08 43 98 03  // .............C..
    2D60: 03 02 41 00 2D 05 41 00 00 02 00 2D 01 41 00 01  // ..A.-.A....-.A..
    2D70: 02 7B 36 41 03 02 40 01 2D 01 40 02 01 02 7C 36  // .{6A..@.-.@...|6
    2D80: 40 01 05 68 36 00 00 00 03 01 05 70 36 FF FF 01  // @..h6......p6...
    2D90: 83 03 02 41 00 2D 05 41 00 00 04 00 2D 01 41 00  // ...A.-.A....-.A.
    2DA0: 01 02 7D 36 41 03 02 40 01 2D 01 40 02 01 02 7E  // ..}6A..@.-.@...~
    2DB0: 36 40 01 05 69 36 00 00 00 04 01 05 71 36 FF FF  // 6@..i6......q6..
    2DC0: 00 84 03 02 41 00 2D 05 41 00 00 05 00 2D 01 41  // ....A.-.A....-.A
    2DD0: 00 01 02 7F 36 41 03 02 40 01 2D 01 40 02 01 02  // ....6A..@.-.@...
    2DE0: 80 36 40 01 05 6A 36 00 00 00 05 01 05 72 36 FF  // .6@..j6......r6.
    2DF0: FF 00 85 03 02 41 00 2D 05 41 00 00 06 00 2D 01  // .....A.-.A....-.
    2E00: 41 00 01 02 81 36 41 03 02 40 01 2D 01 40 02 01  // A....6A..@.-.@..
    2E10: 02 82 36 40 01 05 6B 36 00 00 00 06 01 05 73 36  // ..6@..k6......s6
    2E20: FF FF 00 86 03 05 46 00 31 00 00 03 02 41 00 2D  // ......F.1....A.-
    2E30: 05 41 00 00 00 00 2D 01 41 00 03 02 40 01 2D 01  // .A....-.A...@.-.
    2E40: 40 02 04 02 00 41 04 02 01 40 04 05 04 00 00 00  // @....A...@......
    2E50: 00 04 05 05 00 00 00 00 04 05 06 00 20 00 00 43  // ............ ..C
    2E60: 08 04 01 05 94 36 00 00 00 80 01 05 95 36 00 20  // .....6.......6. 
    2E70: 00 00 01 02 56 36 41 01 02 57 36 40 01 05 61 36  // ....V6A..W6@..a6
    2E80: FF FF 00 80 01 05 97 36 00 00 00 00 01 05 96 36  // .......6.......6
    2E90: 00 00 00 00 4A 25 48 00 01 44 18 04 0D 05 B1 36  // ....J%H..D.....6
    2EA0: 08 00 00 00 43 57 04 5C 05 B6 36 00 FF FF FF C6  // ....CW.\..6.....
    2EB0: 00 09 00 07 05 C0 36 FE FF FF FF 03 05 41 50 C3  // ......6......AP.
    2EC0: 00 00 4A 05 A3 36 02 00 00 00 49 54 04 51 14 33  // ..J..6....IT.Q.3
    2ED0: 05 41 01 00 00 00 3E 05 41 00 00 00 00 49 36 04  // .A....>.A....I6.
    2EE0: 43 93 04 07 05 B1 36 FF FE FF FF 02 05 00 80 19  // C.....6.........
    2EF0: 00 00 02 05 01 00 00 00 00 02 05 02 00 00 00 00  // ................
    2F00: 02 05 03 00 00 00 00 02 05 04 00 00 00 00 02 05  // ................
    2F10: 05 00 00 00 00 02 05 06 00 00 00 00 43 10 00 5B  // ............C..[
    2F20: 4B 00 01 01 00 00 37 00 00 42 21 00 63 00 1F 00  // K.....7..B!.c...
    2F30: 63 01 39 00 63 03 3F 00 63 02 45 00 5A 5A 5B 03  // c.9.c.?.c.E.ZZ[.
    2F40: 05 40 00 00 05 04 2D 19 40 00 15 05 40 02 01 02  // .@....-.@...@...
    2F50: 0C 00 40 02 00 00 0D 00 5B 02 00 00 E3 0D 5B 02  // ..@.....[.....[.
    2F60: 00 00 E7 0D 5B 02 00 00 E8 0D 5B 00 41 54 4F 4D  // ....[.....[.ATOM
    2F70: 5F 44 41 54 41 5F 54 41 42 4C 45 5F 45 4E 44 00  // _DATA_TABLE_END.
    2F80: 00 00 00 00 00 00 00 00 00 00 00 00 00 00 00 00  // ................
    2F90: 00 00 00 00 00 00 00 00 00 00 00 00 00 00 00 00  // ................
    2FA0: 00 00 00 00 00 00 00 00 00 00 00 00 00 00 00 00  // ................
    2FB0: 00 00 00 00 00 00 00 00 00 00 00 00 00 00 00 00  // ................
    2FC0: 00 00 00 00 00 00 00 00 00 00 00 00 00 00 00 00  // ................
    2FD0: 00 00 00 00 00 00 00 00 00 00 00 00 00 00 00 00  // ................
    2FE0: 00 00 00 00 00 00 00 00 00 00 00 00 00 00 00 00  // ................
    2FF0: 00 00 00 00 00 00 00 00 00 00 00 00 00 00 00 00  // ................
    3000: 00 00 00 00 00 00 00 00 00 00 00 00 00 00 00 00  // ................
    3010: 00 00 00 00 00 00 00 00 00 00 00 00 00 00 00 00  // ................
    3020: 00 00 00 00 00 00 00 00 00 00 00 00 00 00 00 00  // ................
    3030: 00 00 00 00 00 00 00 00 00 00 00 00 00 00 00 00  // ................
    3040: 00 00 00 00 00 00 00 00 00 00 00 00 00 00 00 00  // ................
    3050: 00 00 00 00 00 00 00 00 00 00 00 00 00 00 00 00  // ................
    3060: 00 00 00 00 00 00 00 00 00 00 00 00 00 00 00 00  // ................
    3070: 00 00 00 00 00 00 00 00 00 00 00 00 00 00 00 00  // ................
    3080: 00 00 00 00                                      // ....
