/*
 * Intel ACPI Component Architecture
 * AML/ASL+ Disassembler version 20230628 (64-bit version)
 * Copyright (c) 2000 - 2023 Intel Corporation
 * 
 * Disassembly of ./encoded/vfct.dat, Thu Feb  1 17:50:13 2024
 *
 * ACPI Data Table [VFCT]
 *
 * Format: [HexOffset DecimalOffset ByteLength]  FieldName : FieldValue (in hex)
 */

[000h 0000 004h]                   Signature : "VFCT"    
[004h 0004 004h]                Table Length : 00004284
[008h 0008 001h]                    Revision : 01
[009h 0009 001h]                    Checksum : 0E
[00Ah 0010 006h]                      Oem ID : "ALASKA"
[010h 0016 008h]                Oem Table ID : "A M I "
[018h 0024 004h]                Oem Revision : 00000001
[01Ch 0028 004h]             Asl Compiler ID : "AMD "
[020h 0032 004h]       Asl Compiler Revision : 33504F47


**** Unknown ACPI table signature [VFCT]


Raw Table Data: Length 17028 (0x4284)

    0000: 56 46 43 54 84 42 00 00 01 0E 41 4C 41 53 4B 41  // VFCT.B....ALASKA
    0010: 41 20 4D 20 49 20 00 00 01 00 00 00 41 4D 44 20  // A M I ......AMD 
    0020: 47 4F 50 33 32 9B A3 5D BD C6 CF 49 95 A6 E8 E4  // GOP32..]...I....
    0030: 2E CD 79 A7 4C 00 00 00 00 00 00 00 00 00 00 00  // ..y.L...........
    0040: 00 00 00 00 00 00 00 00 00 00 00 00 09 00 00 00  // ................
    0050: 00 00 00 00 00 00 00 00 02 10 BF 15 00 00 00 00  // ................
    0060: 01 00 00 00 00 42 00 00 55 AA 21 00 00 00 00 00  // .....B..U.!.....
    0070: 00 00 00 00 00 00 00 00 00 00 00 00 00 00 00 00  // ................
    0080: C0 01 00 00 00 00 49 42 4D 92 00 00 00 00 00 00  // ......IBM.......
    0090: 00 00 00 00 00 00 00 04 20 37 36 31 32 39 35 35  // ........ 7612955
    00A0: 32 30 00 00 00 00 00 00 00 00 00 00 00 00 00 00  // 20..............
    00B0: 94 01 00 00 00 00 00 00 30 37 2F 30 36 2F 32 33  // ........07/06/23
    00C0: 2C 31 34 3A 32 31 3A 35 38 00 00 00 00 00 00 00  // ,14:21:58.......
    00D0: 00 00 00 00 00 00 80 00 00 00 00 00 00 00 00 00  // ................
    00E0: 00 00 00 00 00 00 00 00 31 31 33 2D 50 48 58 47  // ........113-PHXG
    00F0: 45 4E 45 52 49 43 2D 30 30 31 00 50 48 4F 45 4E  // ENERIC-001.PHOEN
    0100: 49 58 00 50 43 49 5F 45 58 50 52 45 53 53 00 44  // IX.PCI_EXPRESS.D
    0110: 44 52 35 00 0D 0A 41 4D 44 20 41 4D 44 5F 50 48  // DR5...AMD AMD_PH
    0120: 4F 45 4E 49 58 5F 47 45 4E 45 52 49 43 20 20 20  // OENIX_GENERIC   
    0130: 20 20 20 20 20 20 20 20 20 20 20 20 20 20 20 20  //                 
    0140: 20 20 20 20 20 20 20 20 20 20 20 20 20 20 20 20  //                 
    0150: 20 20 20 20 20 20 20 20 20 20 20 20 20 20 20 20  //                 
    0160: 20 20 0D 0A 00 0D 0A 20 0D 0A 00 28 43 29 20 31  //   ..... ...(C) 1
    0170: 39 38 38 2D 32 30 32 32 2C 20 41 64 76 61 6E 63  // 988-2022, Advanc
    0180: 65 64 20 4D 69 63 72 6F 20 44 65 76 69 63 65 73  // ed Micro Devices
    0190: 2C 20 49 6E 63 2E 00 41 54 4F 4D 42 49 4F 53 42  // , Inc..ATOMBIOSB
    01A0: 4B 2D 41 4D 44 20 56 45 52 30 32 32 2E 30 31 32  // K-AMD VER022.012
    01B0: 2E 30 30 30 2E 30 32 34 2E 30 30 30 30 30 31 00  // .000.024.000001.
    01C0: 50 48 4F 45 4E 49 58 2E 62 69 6E 20 00 30 30 30  // PHOENIX.bin .000
    01D0: 30 30 30 30 30 00 30 30 30 36 39 38 33 30 00 20  // 00000.00069830. 
    01E0: 20 20 20 20 20 20 20 00 41 4D 44 5F 50 48 4F 45  //        .AMD_PHOE
    01F0: 4E 49 58 5F 47 45 4E 45 52 49 43 00 2C 00 02 03  // NIX_GENERIC.,...
    0200: 41 54 4F 4D 00 00 00 00 58 01 E5 01 AC 00 00 00  // ATOM....X.......
    0210: 00 00 00 00 02 10 02 10 C0 01 B0 39 00 03 00 00  // ...........9....
    0220: 00 00 00 00 00 02 03 00 50 43 49 52 02 10 BF 15  // ........PCIR....
    0230: 00 00 18 00 00 00 80 03 21 00 0C 16 00 80 00 00  // ........!.......
    0240: 41 4D 44 20 41 54 4F 4D 42 49 4F 53 00 83 A0 52  // AMD ATOMBIOS...R
    0250: E0 00 00 00 00 00 00 00 00 00 00 00 00 00 00 00  // ................
    0260: 00 00 00 00 00 00 00 00 00 00 00 00 00 00 00 00  // ................
    0270: 00 00 00 00 00 00 00 00 00 00 00 00 00 00 00 00  // ................
    0280: 00 00 00 00 00 00 00 00 00 00 00 00 00 00 00 00  // ................
    0290: 00 00 00 00 00 00 00 00 00 00 00 00 00 00 00 00  // ................
    02A0: 00 00 00 00 00 00 00 00 00 00 00 00 00 00 00 00  // ................
    02B0: 00 00 00 00 00 00 00 00 00 00 00 00 00 00 00 00  // ................
    02C0: 00 00 00 00 00 00 00 00 00 00 00 00 00 00 00 00  // ................
    02D0: 00 00 00 00 00 00 00 00 00 00 00 00 00 00 00 00  // ................
    02E0: 00 00 00 00 00 00 00 00 00 00 00 00 00 00 00 00  // ................
    02F0: 00 00 00 00 00 00 00 00 00 00 00 00 00 00 00 00  // ................
    0300: 00 00 00 00 00 00 00 00 00 00 00 00 00 00 00 00  // ................
    0310: 00 00 00 00 00 00 00 00 00 00 00 00 00 00 00 00  // ................
    0320: 00 00 00 00 00 00 00 00 00 00 00 00 00 00 00 00  // ................
    0330: 00 00 00 00 00 00 00 00 00 00 00 00 00 00 00 00  // ................
    0340: 00 00 00 00 00 00 00 00 00 00 00 00 00 00 00 00  // ................
    0350: 00 00 00 00 00 00 00 00 00 00 00 00 00 00 00 00  // ................
    0360: 00 00 00 00 00 00 00 00 4A 00 02 01 00 00 00 00  // ........J.......
    0370: 00 00 20 36 94 38 90 37 D0 2F 4C 03 00 39 00 00  // .. 6.8.7./L..9..
    0380: 00 00 88 38 F4 30 C4 37 1C 39 00 00 00 00 68 38  // ...8.0.7.9....h8
    0390: 00 00 00 00 00 00 00 00 48 35 18 36 00 00 54 05  // ........H5.6..T.
    03A0: 00 00 20 30 00 00 00 00 48 31 00 00 00 00 00 00  // .. 0....H1......
    03B0: 00 00 00 00 08 02 05 04 10 00 38 00 4C 00 60 01  // ..........8.L.`.
    03C0: A8 01 00 00 30 75 00 00 0C 00 1F 05 39 50 00 00  // ....0u......9P..
    03D0: 40 9C 00 00 0C 00 1F 05 3E 00 00 00 FF FF FF 00  // @.......>.......
    03E0: 0C 00 1F 05 6F A1 00 00 00 00 00 00 FF FF FF 00  // ....o...........
    03F0: 0C 00 1F 02 3E 00 00 00 00 00 00 00 00 00 00 00  // ....>...........
    0400: 48 3F 00 00 1F 00 44 00 00 16 00 00 00 05 01 1F  // H?....D.........
    0410: 00 00 00 05 02 2C 00 00 00 05 03 3E 00 00 00 05  // .....,.....>....
    0420: 08 1B 50 00 00 05 09 25 60 00 00 05 0A 35 90 00  // ..P....%`....5..
    0430: 00 05 10 21 B0 00 00 05 11 2F F0 00 00 05 18 2A  // ...!...../.....*
    0440: 40 01 00 05 78 69 00 00 1F 00 44 00 00 16 00 00  // @...xi....D.....
    0450: 00 05 01 1F 00 00 00 05 02 2C 00 00 00 05 03 3E  // .........,.....>
    0460: 00 00 00 05 08 1B 50 00 00 05 09 25 60 00 00 05  // ......P....%`...
    0470: 0A 35 90 00 00 05 10 21 B0 00 00 05 11 2F F0 00  // .5.....!...../..
    0480: 00 05 18 2A 40 01 00 05 F0 D2 00 00 1F 00 44 00  // ...*@.........D.
    0490: 00 1E 00 00 00 05 01 26 00 00 00 05 02 30 00 00  // .......&.....0..
    04A0: 00 05 03 3E 00 00 00 05 08 22 40 00 00 05 09 2C  // ...>....."@....,
    04B0: 60 00 00 05 0A 37 70 00 00 05 10 27 90 00 00 05  // `....7p....'....
    04C0: 11 32 C0 00 00 05 18 2E 00 01 00 05 68 3C 01 00  // .2..........h<..
    04D0: 1F 00 44 00 00 1E 00 00 00 05 01 26 00 00 00 05  // ..D........&....
    04E0: 02 30 00 00 00 05 03 3E 00 00 00 05 08 22 40 00  // .0.....>....."@.
    04F0: 00 05 09 2C 60 00 00 05 0A 37 70 00 00 05 10 27  // ...,`....7p....'
    0500: 90 00 00 05 11 32 C0 00 00 05 18 2E 00 01 00 05  // .....2..........
    0510: 00 00 00 00 00 01 02 03 00 01 02 03 00 07 05 00  // ................
    0520: 00 01 02 03 00 01 02 03 00 07 05 00 00 01 02 03  // ................
    0530: 00 01 02 03 00 07 05 00 00 01 02 03 00 01 02 03  // ................
    0540: 00 07 05 00 00 01 02 03 00 01 02 03 00 07 05 00  // ................
    0550: 00 01 02 03 00 01 02 03 00 07 05 00 08 30 00 00  // .............0..
    0560: 87 00 00 00 07 30 00 00 B2 25 00 00 08 31 00 00  // .....0...%...1..
    0570: 87 00 00 00 07 31 00 00 B2 25 00 00 08 32 00 00  // .....1...%...2..
    0580: 87 00 00 00 07 32 00 00 B2 25 00 00 08 33 00 00  // .....2...%...3..
    0590: 87 00 00 00 07 33 00 00 B2 25 00 00 5A 00 00 00  // .....3...%..Z...
    05A0: 05 00 00 00 47 00 00 00 30 00 00 00 54 00 00 00  // ....G...0...T...
    05B0: 30 00 00 00 FF FF FF FF 00 00 00 00 FC 13 01 02  // 0...............
    05C0: 00 1F 02 00 00 00 00 00 48 3F 00 00 05 02 00 07  // ........H?......
    05D0: 03 00 00 2A 00 00 00 00 00 00 00 00 00 00 00 00  // ...*............
    05E0: 00 00 00 00 00 1F 18 00 00 00 00 00 48 3F 00 00  // ............H?..
    05F0: 05 02 00 07 03 00 00 2A 14 00 00 00 00 00 00 00  // .......*........
    0600: 00 00 00 00 00 00 00 00 00 1F 00 00 00 00 00 00  // ................
    0610: 48 3F 00 00 05 02 00 07 03 00 00 16 00 00 00 00  // H?..............
    0620: 00 00 00 00 00 00 00 00 00 00 00 00 00 1F 11 00  // ................
    0630: 00 00 00 00 48 3F 00 00 05 02 00 07 03 00 00 2F  // ....H?........./
    0640: 0F 00 00 00 00 00 00 00 00 00 00 00 00 00 00 00  // ................
    0650: 00 1F 10 00 00 00 00 00 48 3F 00 00 05 02 00 07  // ........H?......
    0660: 03 00 00 21 0B 00 00 00 00 00 00 00 00 00 00 00  // ...!............
    0670: 00 00 00 00 00 1F 0A 00 00 00 00 00 48 3F 00 00  // ............H?..
    0680: 05 02 00 07 03 00 00 34 0A 00 00 00 00 00 00 00  // .......4........
    0690: 00 00 00 00 00 00 00 00 00 1F 09 00 00 00 00 00  // ................
    06A0: 48 3F 00 00 05 02 00 07 03 00 00 25 06 00 00 00  // H?.........%....
    06B0: 00 00 00 00 00 00 00 00 00 00 00 00 00 1F 08 00  // ................
    06C0: 00 00 00 00 48 3F 00 00 05 02 00 07 03 00 00 1B  // ....H?..........
    06D0: 05 00 00 00 00 00 00 00 00 00 00 00 00 00 00 00  // ................
    06E0: 00 1F 03 00 00 00 00 00 48 3F 00 00 05 02 00 07  // ........H?......
    06F0: 03 00 00 3E 00 00 00 00 00 00 00 00 00 00 00 00  // ...>............
    0700: 00 00 00 00 00 1F 01 00 00 00 00 00 48 3F 00 00  // ............H?..
    0710: 05 02 00 07 03 00 00 1F 00 00 00 00 00 00 00 00  // ................
    0720: 00 00 00 00 00 00 00 00 00 1F 11 00 00 00 00 00  // ................
    0730: 60 54 00 00 05 02 00 07 03 00 00 32 0C 00 00 00  // `T.........2....
    0740: 00 00 00 00 00 00 00 00 00 00 00 00 00 1F 18 00  // ................
    0750: 00 00 00 00 60 54 00 00 05 02 00 07 03 00 00 2E  // ....`T..........
    0760: 10 00 00 00 00 00 00 00 00 00 00 00 00 00 00 00  // ................
    0770: 00 1F 10 00 00 00 00 00 60 54 00 00 05 02 00 07  // ........`T......
    0780: 03 00 00 27 09 00 00 00 00 00 00 00 00 00 00 00  // ...'............
    0790: 00 00 00 00 00 1F 0A 00 00 00 00 00 60 54 00 00  // ............`T..
    07A0: 05 02 00 07 03 00 00 37 07 00 00 00 00 00 00 00  // .......7........
    07B0: 00 00 00 00 00 00 00 00 00 1F 09 00 00 00 00 00  // ................
    07C0: 60 54 00 00 05 02 00 07 03 00 00 2C 06 00 00 00  // `T.........,....
    07D0: 00 00 00 00 00 00 00 00 00 00 00 00 00 1F 08 00  // ................
    07E0: 00 00 00 00 60 54 00 00 05 02 00 07 03 00 00 22  // ....`T........."
    07F0: 04 00 00 00 00 00 00 00 00 00 00 00 00 00 00 00  // ................
    0800: 00 1F 03 00 00 00 00 00 60 54 00 00 05 02 00 07  // ........`T......
    0810: 03 00 00 3E 00 00 00 00 00 00 00 00 00 00 00 00  // ...>............
    0820: 00 00 00 00 00 1F 02 00 00 00 00 00 60 54 00 00  // ............`T..
    0830: 05 02 00 07 03 00 00 30 00 00 00 00 00 00 00 00  // .......0........
    0840: 00 00 00 00 00 00 00 00 00 1F 01 00 00 00 00 00  // ................
    0850: 60 54 00 00 05 02 00 07 03 00 00 26 00 00 00 00  // `T.........&....
    0860: 00 00 00 00 00 00 00 00 00 00 00 00 00 1F 00 00  // ................
    0870: 00 00 00 00 60 54 00 00 05 02 00 07 03 00 00 1E  // ....`T..........
    0880: 00 00 00 00 00 00 00 00 00 00 00 00 00 00 00 00  // ................
    0890: 00 1F 01 00 00 00 00 00 EC 5E 00 00 05 02 00 07  // .........^......
    08A0: 03 00 00 26 00 00 00 00 00 00 00 00 00 00 00 00  // ...&............
    08B0: 00 00 00 00 00 1F 08 00 00 00 00 00 EC 5E 00 00  // .............^..
    08C0: 05 02 00 07 03 00 00 22 04 00 00 00 00 00 00 00  // ......."........
    08D0: 00 00 00 00 00 00 00 00 00 1F 03 00 00 00 00 00  // ................
    08E0: EC 5E 00 00 05 02 00 07 03 00 00 3E 00 00 00 00  // .^.........>....
    08F0: 00 00 00 00 00 00 00 00 00 00 00 00 00 1F 02 00  // ................
    0900: 00 00 00 00 EC 5E 00 00 05 02 00 07 03 00 00 30  // .....^.........0
    0910: 00 00 00 00 00 00 00 00 00 00 00 00 00 00 00 00  // ................
    0920: 00 1F 00 00 00 00 00 00 EC 5E 00 00 05 02 00 07  // .........^......
    0930: 03 00 00 1E 00 00 00 00 00 00 00 00 00 00 00 00  // ................
    0940: 00 00 00 00 00 1F 0A 00 00 00 00 00 EC 5E 00 00  // .............^..
    0950: 05 02 00 07 03 00 00 37 07 00 00 00 00 00 00 00  // .......7........
    0960: 00 00 00 00 00 00 00 00 00 1F 09 00 00 00 00 00  // ................
    0970: EC 5E 00 00 05 02 00 07 03 00 00 2C 06 00 00 00  // .^.........,....
    0980: 00 00 00 00 00 00 00 00 00 00 00 00 00 1F 10 00  // ................
    0990: 00 00 00 00 EC 5E 00 00 05 02 00 07 03 00 00 27  // .....^.........'
    09A0: 09 00 00 00 00 00 00 00 00 00 00 00 00 00 00 00  // ................
    09B0: 00 1F 11 00 00 00 00 00 EC 5E 00 00 05 02 00 07  // .........^......
    09C0: 03 00 00 32 0C 00 00 00 00 00 00 00 00 00 00 00  // ...2............
    09D0: 00 00 00 00 00 1F 18 00 00 00 00 00 EC 5E 00 00  // .............^..
    09E0: 05 02 00 07 03 00 00 2E 10 00 00 00 00 00 00 00  // ................
    09F0: 00 00 00 00 00 00 00 00 00 1F 18 00 00 00 00 00  // ................
    0A00: 78 69 00 00 05 02 00 07 03 00 00 2A 14 00 00 00  // xi.........*....
    0A10: 00 00 00 00 00 00 00 00 00 00 00 00 00 1F 01 00  // ................
    0A20: 00 00 00 00 78 69 00 00 05 02 00 07 03 00 00 1F  // ....xi..........
    0A30: 00 00 00 00 00 00 00 00 00 00 00 00 00 00 00 00  // ................
    0A40: 00 1F 08 00 00 00 00 00 78 69 00 00 05 02 00 07  // ........xi......
    0A50: 03 00 00 1B 05 00 00 00 00 00 00 00 00 00 00 00  // ................
    0A60: 00 00 00 00 00 1F 03 00 00 00 00 00 78 69 00 00  // ............xi..
    0A70: 05 02 00 07 03 00 00 3E 00 00 00 00 00 00 00 00  // .......>........
    0A80: 00 00 00 00 00 00 00 00 00 1F 09 00 00 00 00 00  // ................
    0A90: 78 69 00 00 05 02 00 07 03 00 00 25 06 00 00 00  // xi.........%....
    0AA0: 00 00 00 00 00 00 00 00 00 00 00 00 00 1F 02 00  // ................
    0AB0: 00 00 00 00 78 69 00 00 05 02 00 07 03 00 00 2A  // ....xi.........*
    0AC0: 00 00 00 00 00 00 00 00 00 00 00 00 00 00 00 00  // ................
    0AD0: 00 1F 00 00 00 00 00 00 78 69 00 00 05 02 00 07  // ........xi......
    0AE0: 03 00 00 16 00 00 00 00 00 00 00 00 00 00 00 00  // ................
    0AF0: 00 00 00 00 00 1F 10 00 00 00 00 00 78 69 00 00  // ............xi..
    0B00: 05 02 00 07 03 00 00 21 0B 00 00 00 00 00 00 00  // .......!........
    0B10: 00 00 00 00 00 00 00 00 00 1F 11 00 00 00 00 00  // ................
    0B20: 78 69 00 00 05 02 00 07 03 00 00 2F 0F 00 00 00  // xi........./....
    0B30: 00 00 00 00 00 00 00 00 00 00 00 00 00 1F 0A 00  // ................
    0B40: 00 00 00 00 78 69 00 00 05 02 00 07 03 00 00 34  // ....xi.........4
    0B50: 0A 00 00 00 00 00 00 00 00 00 00 00 00 00 00 00  // ................
    0B60: 04 1F 00 01 00 00 00 00 30 75 00 00 05 02 00 07  // ........0u......
    0B70: 03 00 05 31 08 00 00 00 00 00 00 00 00 00 00 00  // ...1............
    0B80: 00 00 00 00 03 1F 00 01 00 00 00 00 30 75 00 00  // ............0u..
    0B90: 05 02 00 07 03 00 00 3E 00 00 00 00 00 00 00 00  // .......>........
    0BA0: 00 00 00 00 00 00 00 00 02 1F 00 00 00 00 00 00  // ................
    0BB0: 30 75 00 00 05 02 00 07 03 00 00 3E 00 00 00 00  // 0u.........>....
    0BC0: 00 00 00 00 00 00 00 00 00 00 00 00 04 1F 02 01  // ................
    0BD0: 00 00 00 00 30 75 00 00 05 02 00 07 03 00 05 2C  // ....0u.........,
    0BE0: 0D 00 00 00 00 00 00 00 00 00 00 00 00 00 00 00  // ................
    0BF0: 04 1F 03 01 00 00 00 00 30 75 00 00 05 02 00 07  // ........0u......
    0C00: 03 00 05 29 10 00 00 00 00 00 00 00 00 00 00 00  // ...)............
    0C10: 00 00 00 00 04 1F 01 01 00 00 00 00 30 75 00 00  // ............0u..
    0C20: 05 02 00 07 03 00 05 2F 0A 00 00 00 00 00 00 00  // ......./........
    0C30: 00 00 00 00 00 00 00 00 00 1F 11 00 00 00 00 00  // ................
    0C40: 90 7E 00 00 05 02 00 07 03 00 00 32 0C 00 00 00  // .~.........2....
    0C50: 00 00 00 00 00 00 00 00 00 00 00 00 00 1F 18 00  // ................
    0C60: 00 00 00 00 90 7E 00 00 05 02 00 07 03 00 00 2E  // .....~..........
    0C70: 10 00 00 00 00 00 00 00 00 00 00 00 00 00 00 00  // ................
    0C80: 00 1F 09 00 00 00 00 00 90 7E 00 00 05 02 00 07  // .........~......
    0C90: 03 00 00 2C 06 00 00 00 00 00 00 00 00 00 00 00  // ...,............
    0CA0: 00 00 00 00 00 1F 08 00 00 00 00 00 90 7E 00 00  // .............~..
    0CB0: 05 02 00 07 03 00 00 22 04 00 00 00 00 00 00 00  // ......."........
    0CC0: 00 00 00 00 00 00 00 00 00 1F 03 00 00 00 00 00  // ................
    0CD0: 90 7E 00 00 05 02 00 07 03 00 00 3E 00 00 00 00  // .~.........>....
    0CE0: 00 00 00 00 00 00 00 00 00 00 00 00 00 1F 02 00  // ................
    0CF0: 00 00 00 00 90 7E 00 00 05 02 00 07 03 00 00 30  // .....~.........0
    0D00: 00 00 00 00 00 00 00 00 00 00 00 00 00 00 00 00  // ................
    0D10: 00 1F 01 00 00 00 00 00 90 7E 00 00 05 02 00 07  // .........~......
    0D20: 03 00 00 26 00 00 00 00 00 00 00 00 00 00 00 00  // ...&............
    0D30: 00 00 00 00 00 1F 00 00 00 00 00 00 90 7E 00 00  // .............~..
    0D40: 05 02 00 07 03 00 00 1E 00 00 00 00 00 00 00 00  // ................
    0D50: 00 00 00 00 00 00 00 00 00 1F 10 00 00 00 00 00  // ................
    0D60: 90 7E 00 00 05 02 00 07 03 00 00 27 09 00 00 00  // .~.........'....
    0D70: 00 00 00 00 00 00 00 00 00 00 00 00 00 1F 0A 00  // ................
    0D80: 00 00 00 00 90 7E 00 00 05 02 00 07 03 00 00 37  // .....~.........7
    0D90: 07 00 00 00 00 00 00 00 00 00 00 00 00 00 00 00  // ................
    0DA0: 02 1F 00 00 00 00 00 00 40 9C 00 00 05 02 00 07  // ........@.......
    0DB0: 03 00 00 3E 00 00 00 00 00 00 00 00 00 00 00 00  // ...>............
    0DC0: 00 00 00 00 03 1F 00 01 00 00 00 00 40 9C 00 00  // ............@...
    0DD0: 05 02 00 07 03 00 00 3E 00 00 00 00 00 00 00 00  // .......>........
    0DE0: 00 00 00 00 00 00 00 00 00 1F 09 00 00 00 00 00  // ................
    0DF0: C0 A8 00 00 05 02 00 07 03 00 00 2C 06 00 00 00  // ...........,....
    0E00: 00 00 00 00 00 00 00 00 00 00 00 00 00 1F 02 00  // ................
    0E10: 00 00 00 00 C0 A8 00 00 05 02 00 07 03 00 00 30  // ...............0
    0E20: 00 00 00 00 00 00 00 00 00 00 00 00 00 00 00 00  // ................
    0E30: 00 1F 01 00 00 00 00 00 C0 A8 00 00 05 02 00 07  // ................
    0E40: 03 00 00 26 00 00 00 00 00 00 00 00 00 00 00 00  // ...&............
    0E50: 00 00 00 00 00 1F 00 00 00 00 00 00 C0 A8 00 00  // ................
    0E60: 05 02 00 07 03 00 00 1E 00 00 00 00 00 00 00 00  // ................
    0E70: 00 00 00 00 00 00 00 00 00 1F 03 00 00 00 00 00  // ................
    0E80: C0 A8 00 00 05 02 00 07 03 00 00 3E 00 00 00 00  // ...........>....
    0E90: 00 00 00 00 00 00 00 00 00 00 00 00 00 1F 0A 00  // ................
    0EA0: 00 00 00 00 C0 A8 00 00 05 02 00 07 03 00 00 37  // ...............7
    0EB0: 07 00 00 00 00 00 00 00 00 00 00 00 00 00 00 00  // ................
    0EC0: 00 1F 10 00 00 00 00 00 C0 A8 00 00 05 02 00 07  // ................
    0ED0: 03 00 00 27 09 00 00 00 00 00 00 00 00 00 00 00  // ...'............
    0EE0: 00 00 00 00 00 1F 11 00 00 00 00 00 C0 A8 00 00  // ................
    0EF0: 05 02 00 07 03 00 00 32 0C 00 00 00 00 00 00 00  // .......2........
    0F00: 00 00 00 00 00 00 00 00 00 1F 18 00 00 00 00 00  // ................
    0F10: C0 A8 00 00 05 02 00 07 03 00 00 2E 10 00 00 00  // ................
    0F20: 00 00 00 00 00 00 00 00 00 00 00 00 00 1F 08 00  // ................
    0F30: 00 00 00 00 C0 A8 00 00 05 02 00 07 03 00 00 22  // ..............."
    0F40: 04 00 00 00 00 00 00 00 00 00 00 00 00 00 00 00  // ................
    0F50: 00 1F 08 00 00 00 00 00 F0 D2 00 00 05 02 00 07  // ................
    0F60: 03 00 00 22 04 00 00 00 00 00 00 00 00 00 00 00  // ..."............
    0F70: 00 00 00 00 00 1F 18 00 00 00 00 00 F0 D2 00 00  // ................
    0F80: 05 02 00 07 03 00 00 2E 10 00 00 00 00 00 00 00  // ................
    0F90: 00 00 00 00 00 00 00 00 00 1F 09 00 00 00 00 00  // ................
    0FA0: F0 D2 00 00 05 02 00 07 03 00 00 2C 06 00 00 00  // ...........,....
    0FB0: 00 00 00 00 00 00 00 00 00 00 00 00 00 1F 10 00  // ................
    0FC0: 00 00 00 00 F0 D2 00 00 05 02 00 07 03 00 00 27  // ...............'
    0FD0: 09 00 00 00 00 00 00 00 00 00 00 00 00 00 00 00  // ................
    0FE0: 00 1F 11 00 00 00 00 00 F0 D2 00 00 05 02 00 07  // ................
    0FF0: 03 00 00 32 0C 00 00 00 00 00 00 00 00 00 00 00  // ...2............
    1000: 00 00 00 00 00 1F 0A 00 00 00 00 00 F0 D2 00 00  // ................
    1010: 05 02 00 07 03 00 00 36 08 00 00 00 00 00 00 00  // .......6........
    1020: 00 00 00 00 00 00 00 00 00 1F 03 00 00 00 00 00  // ................
    1030: F0 D2 00 00 05 02 00 07 03 00 00 3E 00 00 00 00  // ...........>....
    1040: 00 00 00 00 00 00 00 00 00 00 00 00 00 1F 01 00  // ................
    1050: 00 00 00 00 F0 D2 00 00 05 02 00 07 03 00 00 26  // ...............&
    1060: 00 00 00 00 00 00 00 00 00 00 00 00 00 00 00 00  // ................
    1070: 00 1F 00 00 00 00 00 00 F0 D2 00 00 05 02 00 07  // ................
    1080: 03 00 00 1D 00 00 00 00 00 00 00 00 00 00 00 00  // ................
    1090: 00 00 00 00 00 1F 02 00 00 00 00 00 F0 D2 00 00  // ................
    10A0: 05 02 00 07 03 00 00 2E 00 00 00 00 00 00 00 00  // ................
    10B0: 00 00 00 00 00 00 00 00 04 1F 01 01 00 00 00 00  // ................
    10C0: 60 EA 00 00 05 02 00 07 03 00 05 2F 0A 00 00 00  // `........../....
    10D0: 00 00 00 00 00 00 00 00 00 00 00 00 03 1F 00 00  // ................
    10E0: 00 00 00 00 60 EA 00 00 05 02 00 07 03 00 00 3E  // ....`..........>
    10F0: 00 00 00 00 00 00 00 00 00 00 00 00 00 00 00 00  // ................
    1100: 02 1F 00 00 00 00 00 00 60 EA 00 00 05 02 00 07  // ........`.......
    1110: 03 00 00 3E 00 00 00 00 00 00 00 00 00 00 00 00  // ...>............
    1120: 00 00 00 00 04 1F 00 01 00 00 00 00 60 EA 00 00  // ............`...
    1130: 05 02 00 07 03 00 05 31 08 00 00 00 00 00 00 00  // .......1........
    1140: 00 00 00 00 00 00 00 00 04 1F 03 01 00 00 00 00  // ................
    1150: 60 EA 00 00 05 02 00 07 03 00 05 29 10 00 00 00  // `..........)....
    1160: 00 00 00 00 00 00 00 00 00 00 00 00 04 1F 02 01  // ................
    1170: 00 00 00 00 60 EA 00 00 05 02 00 07 03 00 05 2C  // ....`..........,
    1180: 0D 00 00 00 00 00 00 00 00 00 00 00 00 00 00 00  // ................
    1190: 00 1F 03 00 00 00 00 00 20 FD 00 00 05 02 00 07  // ........ .......
    11A0: 03 00 00 3E 00 00 00 00 00 00 00 00 00 00 00 00  // ...>............
    11B0: 00 00 00 00 00 1F 02 00 00 00 00 00 20 FD 00 00  // ............ ...
    11C0: 05 02 00 07 03 00 00 30 00 00 00 00 00 00 00 00  // .......0........
    11D0: 00 00 00 00 00 00 00 00 00 1F 01 00 00 00 00 00  // ................
    11E0: 20 FD 00 00 05 02 00 07 03 00 00 26 00 00 00 00  //  ..........&....
    11F0: 00 00 00 00 00 00 00 00 00 00 00 00 00 1F 00 00  // ................
    1200: 00 00 00 00 20 FD 00 00 05 02 00 07 03 00 00 1E  // .... ...........
    1210: 00 00 00 00 00 00 00 00 00 00 00 00 00 00 00 00  // ................
    1220: 00 1F 08 00 00 00 00 00 20 FD 00 00 05 02 00 07  // ........ .......
    1230: 03 00 00 22 04 00 00 00 00 00 00 00 00 00 00 00  // ..."............
    1240: 00 00 00 00 00 1F 09 00 00 00 00 00 20 FD 00 00  // ............ ...
    1250: 05 02 00 07 03 00 00 2C 06 00 00 00 00 00 00 00  // .......,........
    1260: 00 00 00 00 00 00 00 00 00 1F 10 00 00 00 00 00  // ................
    1270: 20 FD 00 00 05 02 00 07 03 00 00 27 09 00 00 00  //  ..........'....
    1280: 00 00 00 00 00 00 00 00 00 00 00 00 00 1F 11 00  // ................
    1290: 00 00 00 00 20 FD 00 00 05 02 00 07 03 00 00 32  // .... ..........2
    12A0: 0C 00 00 00 00 00 00 00 00 00 00 00 00 00 00 00  // ................
    12B0: 00 1F 18 00 00 00 00 00 20 FD 00 00 05 02 00 07  // ........ .......
    12C0: 03 00 00 2E 10 00 00 00 00 00 00 00 00 00 00 00  // ................
    12D0: 00 00 00 00 00 1F 0A 00 00 00 00 00 20 FD 00 00  // ............ ...
    12E0: 05 02 00 07 03 00 00 37 07 00 00 00 00 00 00 00  // .......7........
    12F0: 00 00 00 00 00 00 00 00 00 1F 00 00 00 00 00 00  // ................
    1300: AC 07 01 00 05 02 00 07 03 00 00 1E 00 00 00 00  // ................
    1310: 00 00 00 00 00 00 00 00 00 00 00 00 00 1F 01 00  // ................
    1320: 00 00 00 00 AC 07 01 00 05 02 00 07 03 00 00 26  // ...............&
    1330: 00 00 00 00 00 00 00 00 00 00 00 00 00 00 00 00  // ................
    1340: 00 1F 03 00 00 00 00 00 AC 07 01 00 05 02 00 07  // ................
    1350: 03 00 00 3E 00 00 00 00 00 00 00 00 00 00 00 00  // ...>............
    1360: 00 00 00 00 00 1F 0A 00 00 00 00 00 AC 07 01 00  // ................
    1370: 05 02 00 07 03 00 00 37 07 00 00 00 00 00 00 00  // .......7........
    1380: 00 00 00 00 00 00 00 00 00 1F 10 00 00 00 00 00  // ................
    1390: AC 07 01 00 05 02 00 07 03 00 00 27 09 00 00 00  // ...........'....
    13A0: 00 00 00 00 00 00 00 00 00 00 00 00 00 1F 11 00  // ................
    13B0: 00 00 00 00 AC 07 01 00 05 02 00 07 03 00 00 32  // ...............2
    13C0: 0C 00 00 00 00 00 00 00 00 00 00 00 00 00 00 00  // ................
    13D0: 00 1F 18 00 00 00 00 00 AC 07 01 00 05 02 00 07  // ................
    13E0: 03 00 00 2E 10 00 00 00 00 00 00 00 00 00 00 00  // ................
    13F0: 00 00 00 00 00 1F 02 00 00 00 00 00 AC 07 01 00  // ................
    1400: 05 02 00 07 03 00 00 30 00 00 00 00 00 00 00 00  // .......0........
    1410: 00 00 00 00 00 00 00 00 00 1F 08 00 00 00 00 00  // ................
    1420: AC 07 01 00 05 02 00 07 03 00 00 22 04 00 00 00  // ..........."....
    1430: 00 00 00 00 00 00 00 00 00 00 00 00 00 1F 09 00  // ................
    1440: 00 00 00 00 AC 07 01 00 05 02 00 07 03 00 00 2C  // ...............,
    1450: 06 00 00 00 00 00 00 00 00 00 00 00 00 00 00 00  // ................
    1460: 04 1F 00 01 00 00 00 00 80 38 01 00 05 02 00 07  // .........8......
    1470: 03 00 05 31 08 00 00 00 00 00 00 00 00 00 00 00  // ...1............
    1480: 00 00 00 00 04 1F 02 01 00 00 00 00 80 38 01 00  // .............8..
    1490: 05 02 00 07 03 00 05 2C 0D 00 00 00 00 00 00 00  // .......,........
    14A0: 00 00 00 00 00 00 00 00 04 1F 01 01 00 00 00 00  // ................
    14B0: 80 38 01 00 05 02 00 07 03 00 05 2F 0A 00 00 00  // .8........./....
    14C0: 00 00 00 00 00 00 00 00 00 00 00 00 04 1F 03 01  // ................
    14D0: 00 00 00 00 80 38 01 00 05 02 00 07 03 00 05 29  // .....8.........)
    14E0: 10 00 00 00 00 00 00 00 00 00 00 00 00 00 00 00  // ................
    14F0: 00 1F 00 00 00 00 00 00 68 3C 01 00 05 02 00 07  // ........h<......
    1500: 03 00 00 1D 00 00 00 00 00 00 00 00 00 00 00 00  // ................
    1510: 00 00 00 00 00 1F 01 00 00 00 00 00 68 3C 01 00  // ............h<..
    1520: 05 02 00 07 03 00 00 26 00 00 00 00 00 00 00 00  // .......&........
    1530: 00 00 00 00 00 00 00 00 00 1F 02 00 00 00 00 00  // ................
    1540: 68 3C 01 00 05 02 00 07 03 00 00 2E 00 00 00 00  // h<..............
    1550: 00 00 00 00 00 00 00 00 00 00 00 00 00 1F 03 00  // ................
    1560: 00 00 00 00 68 3C 01 00 05 02 00 07 03 00 00 3E  // ....h<.........>
    1570: 00 00 00 00 00 00 00 00 00 00 00 00 00 00 00 00  // ................
    1580: 00 1F 08 00 00 00 00 00 68 3C 01 00 05 02 00 07  // ........h<......
    1590: 03 00 00 22 04 00 00 00 00 00 00 00 00 00 00 00  // ..."............
    15A0: 00 00 00 00 00 1F 09 00 00 00 00 00 68 3C 01 00  // ............h<..
    15B0: 05 02 00 07 03 00 00 2C 06 00 00 00 00 00 00 00  // .......,........
    15C0: 00 00 00 00 00 00 00 00 00 1F 10 00 00 00 00 00  // ................
    15D0: 68 3C 01 00 05 02 00 07 03 00 00 27 09 00 00 00  // h<.........'....
    15E0: 00 00 00 00 00 00 00 00 00 00 00 00 00 1F 18 00  // ................
    15F0: 00 00 00 00 68 3C 01 00 05 02 00 07 03 00 00 2E  // ....h<..........
    1600: 10 00 00 00 00 00 00 00 00 00 00 00 00 00 00 00  // ................
    1610: 00 1F 0A 00 00 00 00 00 68 3C 01 00 05 02 00 07  // ........h<......
    1620: 03 00 00 36 08 00 00 00 00 00 00 00 00 00 00 00  // ...6............
    1630: 00 00 00 00 00 1F 11 00 00 00 00 00 68 3C 01 00  // ............h<..
    1640: 05 02 00 07 03 00 00 32 0C 00 00 00 00 00 00 00  // .......2........
    1650: 00 00 00 00 00 00 00 00 04 1F 02 01 00 00 00 00  // ................
    1660: A0 86 01 00 05 02 00 07 03 00 05 2C 0D 00 00 00  // ...........,....
    1670: 00 00 00 00 00 00 00 00 00 00 00 00 08 1F 0A 00  // ................
    1680: 00 00 00 00 A0 86 01 00 05 02 00 07 03 00 06 38  // ...............8
    1690: 00 00 00 00 00 00 00 00 00 00 00 00 00 00 00 00  // ................
    16A0: 08 1F 0B 00 00 00 00 00 A0 86 01 00 05 02 00 07  // ................
    16B0: 03 00 06 32 06 00 00 00 00 00 00 00 00 00 00 00  // ...2............
    16C0: 00 00 00 00 08 1F 0C 00 00 00 00 00 A0 86 01 00  // ................
    16D0: 05 02 00 07 03 00 06 2F 09 00 00 00 00 00 00 00  // ......./........
    16E0: 00 00 00 00 00 00 00 00 08 1F 0D 00 00 00 00 00  // ................
    16F0: A0 86 01 00 05 02 00 07 03 00 06 2B 0D 00 00 00  // ...........+....
    1700: 00 00 00 00 00 00 00 00 00 00 00 00 08 1F 0E 00  // ................
    1710: 00 00 00 00 A0 86 01 00 05 02 00 07 03 00 0A 33  // ...............3
    1720: 00 00 00 00 00 00 00 00 00 00 00 00 00 00 00 00  // ................
    1730: 08 1F 00 00 00 00 00 00 A0 86 01 00 05 02 00 07  // ................
    1740: 03 00 00 3E 00 00 00 00 00 00 00 00 00 00 00 00  // ...>............
    1750: 00 00 00 00 08 1F 0F 00 00 00 00 00 A0 86 01 00  // ................
    1760: 05 02 00 07 03 00 03 22 03 00 00 00 00 00 00 00  // ......."........
    1770: 00 00 00 00 00 00 00 00 08 1F 03 00 00 00 00 00  // ................
    1780: A0 86 01 00 05 02 00 07 03 00 00 30 0E 00 00 00  // ...........0....
    1790: 00 00 00 00 00 00 00 00 00 00 00 00 08 1F 04 00  // ................
    17A0: 00 00 00 00 A0 86 01 00 05 02 00 07 03 00 00 2B  // ...............+
    17B0: 13 00 00 00 00 00 00 00 00 00 00 00 00 00 00 00  // ................
    17C0: 08 1F 05 00 00 00 00 00 A0 86 01 00 05 02 00 07  // ................
    17D0: 03 00 03 3B 00 00 00 00 00 00 00 00 00 00 00 00  // ...;............
    17E0: 00 00 00 00 08 1F 06 00 00 00 00 00 A0 86 01 00  // ................
    17F0: 05 02 00 07 03 00 03 35 06 00 00 00 00 00 00 00  // .......5........
    1800: 00 00 00 00 00 00 00 00 08 1F 02 00 00 00 00 00  // ................
    1810: A0 86 01 00 05 02 00 07 03 00 00 33 0B 00 00 00  // ...........3....
    1820: 00 00 00 00 00 00 00 00 00 00 00 00 04 1F 01 01  // ................
    1830: 00 00 00 00 A0 86 01 00 05 02 00 07 03 00 05 2F  // .............../
    1840: 0A 00 00 00 00 00 00 00 00 00 00 00 00 00 00 00  // ................
    1850: 08 1F 09 00 00 00 00 00 A0 86 01 00 05 02 00 07  // ................
    1860: 03 00 03 2A 11 00 00 00 00 00 00 00 00 00 00 00  // ...*............
    1870: 00 00 00 00 04 1F 00 01 00 00 00 00 A0 86 01 00  // ................
    1880: 05 02 00 07 03 00 05 31 08 00 00 00 00 00 00 00  // .......1........
    1890: 00 00 00 00 00 00 00 00 08 1F 08 00 00 00 00 00  // ................
    18A0: A0 86 01 00 05 02 00 07 03 00 03 2D 0E 00 00 00  // ...........-....
    18B0: 00 00 00 00 00 00 00 00 00 00 00 00 04 1F 03 01  // ................
    18C0: 00 00 00 00 A0 86 01 00 05 02 00 07 03 00 05 29  // ...............)
    18D0: 10 00 00 00 00 00 00 00 00 00 00 00 00 00 00 00  // ................
    18E0: 08 1F 01 00 00 00 00 00 A0 86 01 00 05 02 00 07  // ................
    18F0: 03 00 00 38 06 00 00 00 00 00 00 00 00 00 00 00  // ...8............
    1900: 00 00 00 00 08 1F 07 00 00 00 00 00 A0 86 01 00  // ................
    1910: 05 02 00 07 03 00 03 31 0A 00 00 00 00 00 00 00  // .......1........
    1920: 00 00 00 00 00 00 00 00 04 1F 03 01 00 00 00 00  // ................
    1930: C0 D4 01 00 05 02 00 07 03 00 05 29 10 00 00 00  // ...........)....
    1940: 00 00 00 00 00 00 00 00 00 00 00 00 04 1F 02 01  // ................
    1950: 00 00 00 00 C0 D4 01 00 05 02 00 07 03 00 05 2C  // ...............,
    1960: 0D 00 00 00 00 00 00 00 00 00 00 00 00 00 00 00  // ................
    1970: 04 1F 00 01 00 00 00 00 C0 D4 01 00 05 02 00 07  // ................
    1980: 03 00 05 31 08 00 00 00 00 00 00 00 00 00 00 00  // ...1............
    1990: 00 00 00 00 04 1F 01 01 00 00 00 00 C0 D4 01 00  // ................
    19A0: 05 02 00 07 03 00 05 2F 0A 00 00 00 00 00 00 00  // ......./........
    19B0: 00 00 00 00 00 00 00 00 00 00 00 00 00 00 00 00  // ................
    19C0: 00 00 00 00 00 00 00 00 00 00 00 00 00 00 00 00  // ................
    19D0: 00 00 00 00 00 00 00 00 00 00 00 00 00 00 00 00  // ................
    19E0: 00 00 00 00 00 00 00 00 00 00 00 00 00 00 00 00  // ................
    19F0: 00 00 00 00 00 00 00 00 00 00 00 00 00 00 00 00  // ................
    1A00: 00 00 00 00 00 00 00 00 00 00 00 00 00 00 00 00  // ................
    1A10: 00 00 00 00 00 00 00 00 00 00 00 00 00 00 00 00  // ................
    1A20: 00 00 00 00 00 00 00 00 00 00 00 00 00 00 00 00  // ................
    1A30: 00 00 00 00 00 00 00 00 00 00 00 00 00 00 00 00  // ................
    1A40: 00 00 00 00 00 00 00 00 00 00 00 00 00 00 00 00  // ................
    1A50: 00 00 00 00 00 00 00 00 00 00 00 00 00 00 00 00  // ................
    1A60: 00 00 00 00 00 00 00 00 00 00 00 00 00 00 00 00  // ................
    1A70: 00 00 00 00 00 00 00 00 00 00 00 00 00 00 00 00  // ................
    1A80: 00 00 00 00 00 00 00 00 00 00 00 00 00 00 00 00  // ................
    1A90: 00 00 00 00 00 00 00 00 00 00 00 00 00 00 00 00  // ................
    1AA0: 00 00 00 00 00 00 00 00 00 00 00 00 00 00 00 00  // ................
    1AB0: 00 00 00 00 00 00 00 00 00 00 00 00 00 00 00 00  // ................
    1AC0: 00 00 00 00 00 00 00 00 00 00 00 00 00 00 00 00  // ................
    1AD0: 00 00 00 00 00 00 00 00 00 00 00 00 00 00 00 00  // ................
    1AE0: 00 00 00 00 00 00 00 00 00 00 00 00 00 00 00 00  // ................
    1AF0: 00 00 00 00 00 00 00 00 00 00 00 00 00 00 00 00  // ................
    1B00: 00 00 00 00 00 00 00 00 00 00 00 00 00 00 00 00  // ................
    1B10: 00 00 00 00 00 00 00 00 00 00 00 00 00 00 00 00  // ................
    1B20: 00 00 00 00 00 00 00 00 00 00 00 00 00 00 00 00  // ................
    1B30: 00 00 00 00 00 00 00 00 00 00 00 00 00 00 00 00  // ................
    1B40: 00 00 00 00 00 00 00 00 00 00 00 00 00 00 00 00  // ................
    1B50: 00 00 00 00 00 00 00 00 00 00 00 00 00 00 00 00  // ................
    1B60: 00 00 00 00 00 00 00 00 00 00 00 00 00 00 00 00  // ................
    1B70: 00 00 00 00 00 00 00 00 00 00 00 00 00 00 00 00  // ................
    1B80: 00 00 00 00 00 00 00 00 00 00 00 00 00 00 00 00  // ................
    1B90: 00 00 00 00 00 00 00 00 00 00 00 00 00 00 00 00  // ................
    1BA0: 00 00 00 00 00 00 00 00 00 00 00 00 00 00 00 00  // ................
    1BB0: 00 00 00 00 00 00 00 00 00 00 00 00 00 00 00 00  // ................
    1BC0: 00 00 00 00 00 00 00 00 00 00 00 00 00 00 00 00  // ................
    1BD0: 00 00 00 00 00 00 00 00 00 00 00 00 00 00 00 00  // ................
    1BE0: 00 00 00 00 00 00 00 00 00 00 00 00 00 00 00 00  // ................
    1BF0: 00 00 00 00 00 00 00 00 00 00 00 00 00 00 00 00  // ................
    1C00: 00 00 00 00 00 00 00 00 00 00 00 00 00 00 00 00  // ................
    1C10: 00 00 00 00 00 00 00 00 00 00 00 00 00 00 00 00  // ................
    1C20: 00 00 00 00 00 00 00 00 00 00 00 00 00 00 00 00  // ................
    1C30: 00 00 00 00 00 00 00 00 00 00 00 00 00 00 00 00  // ................
    1C40: 00 00 00 00 00 00 00 00 00 00 00 00 00 00 00 00  // ................
    1C50: 00 00 00 00 00 00 00 00 00 00 00 00 00 00 00 00  // ................
    1C60: 00 00 00 00 00 00 00 00 00 00 00 00 00 00 00 00  // ................
    1C70: 00 00 00 00 00 00 00 00 00 00 00 00 00 00 00 00  // ................
    1C80: 00 00 00 00 00 00 00 00 00 00 00 00 00 00 00 00  // ................
    1C90: 00 00 00 00 00 00 00 00 00 00 00 00 00 00 00 00  // ................
    1CA0: 00 00 00 00 00 00 00 00 00 00 00 00 00 00 00 00  // ................
    1CB0: 00 00 00 00 00 00 00 00 00 00 00 00 00 00 00 00  // ................
    1CC0: 00 00 00 00 00 00 00 00 00 00 00 00 00 00 00 00  // ................
    1CD0: 00 00 00 00 00 00 00 00 00 00 00 00 00 00 00 00  // ................
    1CE0: 00 00 00 00 00 00 00 00 00 00 00 00 00 00 00 00  // ................
    1CF0: 00 00 00 00 00 00 00 00 00 00 00 00 00 00 00 00  // ................
    1D00: 00 00 00 00 00 00 00 00 00 00 00 00 00 00 00 00  // ................
    1D10: 00 00 00 00 00 00 00 00 00 00 00 00 00 00 00 00  // ................
    1D20: 00 00 00 00 00 00 00 00 00 00 00 00 00 00 00 00  // ................
    1D30: 00 00 00 00 00 00 00 00 00 00 00 00 00 00 00 00  // ................
    1D40: 00 00 00 00 00 00 00 00 00 00 00 00 00 00 00 00  // ................
    1D50: 00 00 00 00 00 00 00 00 00 00 00 00 00 00 00 00  // ................
    1D60: 00 00 00 00 00 00 00 00 00 00 00 00 00 00 00 00  // ................
    1D70: 00 00 00 00 00 00 00 00 00 00 00 00 00 00 00 00  // ................
    1D80: 00 00 00 00 00 00 00 00 00 00 00 00 00 00 00 00  // ................
    1D90: 00 00 00 00 00 00 00 00 00 00 00 00 00 00 00 00  // ................
    1DA0: 00 00 00 00 00 00 00 00 00 00 00 00 00 00 00 00  // ................
    1DB0: 00 00 00 00 00 00 00 00 00 00 00 00 00 00 00 00  // ................
    1DC0: 00 00 00 00 00 00 00 00 00 00 00 00 00 00 00 00  // ................
    1DD0: 00 00 00 00 00 00 00 00 00 00 00 00 00 00 00 00  // ................
    1DE0: 00 00 00 00 00 00 00 00 00 00 00 00 00 00 00 00  // ................
    1DF0: 00 00 00 00 00 00 00 00 00 00 00 00 00 00 00 00  // ................
    1E00: 00 00 00 00 00 00 00 00 00 00 00 00 00 00 00 00  // ................
    1E10: 00 00 00 00 00 00 00 00 00 00 00 00 00 00 00 00  // ................
    1E20: 00 00 00 00 00 00 00 00 00 00 00 00 00 00 00 00  // ................
    1E30: 00 00 00 00 00 00 00 00 00 00 00 00 00 00 00 00  // ................
    1E40: 00 00 00 00 00 00 00 00 00 00 00 00 00 00 00 00  // ................
    1E50: 00 00 00 00 00 00 00 00 00 00 00 00 00 00 00 00  // ................
    1E60: 00 00 00 00 00 00 00 00 00 00 00 00 00 00 00 00  // ................
    1E70: 00 00 00 00 00 00 00 00 00 00 00 00 00 00 00 00  // ................
    1E80: 00 00 00 00 00 00 00 00 00 00 00 00 00 00 00 00  // ................
    1E90: 00 00 00 00 00 00 00 00 00 00 00 00 00 00 00 00  // ................
    1EA0: 00 00 00 00 00 00 00 00 00 00 00 00 00 00 00 00  // ................
    1EB0: 00 00 00 00 00 00 00 00 00 00 00 00 00 00 00 00  // ................
    1EC0: 00 00 00 00 00 00 00 00 00 00 00 00 00 00 00 00  // ................
    1ED0: 00 00 00 00 00 00 00 00 00 00 00 00 00 00 00 00  // ................
    1EE0: 00 00 00 00 00 00 00 00 00 00 00 00 00 00 00 00  // ................
    1EF0: 00 00 00 00 00 00 00 00 00 00 00 00 00 00 00 00  // ................
    1F00: 00 00 00 00 00 00 00 00 00 00 00 00 00 00 00 00  // ................
    1F10: 00 00 00 00 00 00 00 00 00 00 00 00 00 00 00 00  // ................
    1F20: 00 00 00 00 00 00 00 00 00 00 00 00 00 00 00 00  // ................
    1F30: 00 00 00 00 00 00 00 00 00 00 00 00 00 00 00 00  // ................
    1F40: 00 00 00 00 00 00 00 00 00 00 00 00 00 00 00 00  // ................
    1F50: 00 00 00 00 00 00 00 00 00 00 00 00 00 00 00 00  // ................
    1F60: 00 00 00 00 00 00 00 00 00 00 00 00 00 00 00 00  // ................
    1F70: 00 00 00 00 00 00 00 00 00 00 00 00 00 00 00 00  // ................
    1F80: 00 00 00 00 00 00 00 00 00 00 00 00 00 00 00 00  // ................
    1F90: 00 00 00 00 00 00 00 00 00 00 00 00 00 00 00 00  // ................
    1FA0: 00 00 00 00 00 00 00 00 00 00 00 00 00 00 00 00  // ................
    1FB0: 00 00 00 00 00 00 00 00 00 00 00 00 00 00 00 00  // ................
    1FC0: 00 00 00 00 00 00 00 00 00 00 00 00 00 00 00 00  // ................
    1FD0: 00 00 00 00 00 00 00 00 00 00 00 00 00 00 00 00  // ................
    1FE0: 00 00 00 00 00 00 00 00 00 00 00 00 00 00 00 00  // ................
    1FF0: 00 00 00 00 00 00 00 00 00 00 00 00 00 00 00 00  // ................
    2000: 00 00 00 00 00 00 00 00 00 00 00 00 00 00 00 00  // ................
    2010: 00 00 00 00 00 00 00 00 00 00 00 00 00 00 00 00  // ................
    2020: 00 00 00 00 00 00 00 00 00 00 00 00 00 00 00 00  // ................
    2030: 00 00 00 00 00 00 00 00 00 00 00 00 00 00 00 00  // ................
    2040: 00 00 00 00 00 00 00 00 00 00 00 00 00 00 00 00  // ................
    2050: 00 00 00 00 00 00 00 00 00 00 00 00 00 00 00 00  // ................
    2060: 00 00 00 00 00 00 00 00 00 00 00 00 00 00 00 00  // ................
    2070: 00 00 00 00 00 00 00 00 00 00 00 00 00 00 00 00  // ................
    2080: 00 00 00 00 00 00 00 00 00 00 00 00 00 00 00 00  // ................
    2090: 00 00 00 00 00 00 00 00 00 00 00 00 00 00 00 00  // ................
    20A0: 00 00 00 00 00 00 00 00 00 00 00 00 00 00 00 00  // ................
    20B0: 00 00 00 00 00 00 00 00 00 00 00 00 00 00 00 00  // ................
    20C0: 00 00 00 00 00 00 00 00 00 00 00 00 00 00 00 00  // ................
    20D0: 00 00 00 00 00 00 00 00 00 00 00 00 00 00 00 00  // ................
    20E0: 00 00 00 00 00 00 00 00 00 00 00 00 00 00 00 00  // ................
    20F0: 00 00 00 00 00 00 00 00 00 00 00 00 00 00 00 00  // ................
    2100: 00 00 00 00 00 00 00 00 00 00 00 00 00 00 00 00  // ................
    2110: 00 00 00 00 00 00 00 00 00 00 00 00 00 00 00 00  // ................
    2120: 00 00 00 00 00 00 00 00 00 00 00 00 00 00 00 00  // ................
    2130: 00 00 00 00 00 00 00 00 00 00 00 00 00 00 00 00  // ................
    2140: 00 00 00 00 00 00 00 00 00 00 00 00 00 00 00 00  // ................
    2150: 00 00 00 00 00 00 00 00 00 00 00 00 00 00 00 00  // ................
    2160: 00 00 00 00 00 00 00 00 00 00 00 00 00 00 00 00  // ................
    2170: 00 00 00 00 00 00 00 00 00 00 00 00 00 00 00 00  // ................
    2180: 00 00 00 00 00 00 00 00 00 00 00 00 00 00 00 00  // ................
    2190: 00 00 00 00 00 00 00 00 00 00 00 00 00 00 00 00  // ................
    21A0: 00 00 00 00 00 00 00 00 00 00 00 00 00 00 00 00  // ................
    21B0: 00 00 00 00 00 00 00 00 00 00 00 00 00 00 00 00  // ................
    21C0: 00 00 00 00 00 00 00 00 00 00 00 00 00 00 00 00  // ................
    21D0: 00 00 00 00 00 00 00 00 00 00 00 00 00 00 00 00  // ................
    21E0: 00 00 00 00 00 00 00 00 00 00 00 00 00 00 00 00  // ................
    21F0: 00 00 00 00 00 00 00 00 00 00 00 00 00 00 00 00  // ................
    2200: 00 00 00 00 00 00 00 00 00 00 00 00 00 00 00 00  // ................
    2210: 00 00 00 00 00 00 00 00 00 00 00 00 00 00 00 00  // ................
    2220: 00 00 00 00 00 00 00 00 00 00 00 00 00 00 00 00  // ................
    2230: 00 00 00 00 00 00 00 00 00 00 00 00 00 00 00 00  // ................
    2240: 00 00 00 00 00 00 00 00 00 00 00 00 00 00 00 00  // ................
    2250: 00 00 00 00 00 00 00 00 00 00 00 00 00 00 00 00  // ................
    2260: 00 00 00 00 00 00 00 00 00 00 00 00 00 00 00 00  // ................
    2270: 00 00 00 00 00 00 00 00 00 00 00 00 00 00 00 00  // ................
    2280: 00 00 00 00 00 00 00 00 00 00 00 00 00 00 00 00  // ................
    2290: 00 00 00 00 00 00 00 00 00 00 00 00 00 00 00 00  // ................
    22A0: 00 00 00 00 00 00 00 00 00 00 00 00 00 00 00 00  // ................
    22B0: 00 00 00 00 00 00 00 00 00 00 00 00 00 00 00 00  // ................
    22C0: 00 00 00 00 00 00 00 00 00 00 00 00 00 00 00 00  // ................
    22D0: 00 00 00 00 00 00 00 00 00 00 00 00 00 00 00 00  // ................
    22E0: 00 00 00 00 00 00 00 00 00 00 00 00 00 00 00 00  // ................
    22F0: 00 00 00 00 00 00 00 00 00 00 00 00 00 00 00 00  // ................
    2300: 00 00 00 00 00 00 00 00 00 00 00 00 00 00 00 00  // ................
    2310: 00 00 00 00 00 00 00 00 00 00 00 00 00 00 00 00  // ................
    2320: 00 00 00 00 00 00 00 00 00 00 00 00 00 00 00 00  // ................
    2330: 00 00 00 00 00 00 00 00 00 00 00 00 00 00 00 00  // ................
    2340: 00 00 00 00 00 00 00 00 00 00 00 00 00 00 00 00  // ................
    2350: 00 00 00 00 00 00 00 00 00 00 00 00 00 00 00 00  // ................
    2360: 00 00 00 00 00 00 00 00 00 00 00 00 00 00 00 00  // ................
    2370: 00 00 00 00 00 00 00 00 00 00 00 00 00 00 00 00  // ................
    2380: 00 00 00 00 00 00 00 00 00 00 00 00 00 00 00 00  // ................
    2390: 00 00 00 00 00 00 00 00 00 00 00 00 00 00 00 00  // ................
    23A0: 00 00 00 00 00 00 00 00 00 00 00 00 00 00 00 00  // ................
    23B0: 00 00 00 00 00 00 00 00 00 00 00 00 00 00 00 00  // ................
    23C0: 00 00 00 00 00 00 00 00 00 00 00 00 00 00 00 00  // ................
    23D0: 00 00 00 00 00 00 00 00 00 00 00 00 00 00 00 00  // ................
    23E0: 00 00 00 00 00 00 00 00 00 00 00 00 00 00 00 00  // ................
    23F0: 00 00 00 00 00 00 00 00 00 00 00 00 00 00 00 00  // ................
    2400: 00 00 00 00 00 00 00 00 00 00 00 00 00 00 00 00  // ................
    2410: 00 00 00 00 00 00 00 00 00 00 00 00 00 00 00 00  // ................
    2420: 00 00 00 00 00 00 00 00 00 00 00 00 00 00 00 00  // ................
    2430: 00 00 00 00 00 00 00 00 00 00 00 00 00 00 00 00  // ................
    2440: 00 00 00 00 00 00 00 00 00 00 00 00 00 00 00 00  // ................
    2450: 00 00 00 00 00 00 00 00 00 00 00 00 00 00 00 00  // ................
    2460: 00 00 00 00 00 00 00 00 00 00 00 00 00 00 00 00  // ................
    2470: 00 00 00 00 00 00 00 00 00 00 00 00 00 00 00 00  // ................
    2480: 00 00 00 00 00 00 00 00 00 00 00 00 00 00 00 00  // ................
    2490: 00 00 00 00 00 00 00 00 00 00 00 00 00 00 00 00  // ................
    24A0: 00 00 00 00 00 00 00 00 00 00 00 00 00 00 00 00  // ................
    24B0: 00 00 00 00 00 00 00 00 00 00 00 00 00 00 00 00  // ................
    24C0: 00 00 00 00 00 00 00 00 00 00 00 00 00 00 00 00  // ................
    24D0: 00 00 00 00 00 00 00 00 00 00 00 00 00 00 00 00  // ................
    24E0: 00 00 00 00 00 00 00 00 00 00 00 00 00 00 00 00  // ................
    24F0: 00 00 00 00 00 00 00 00 00 00 00 00 00 00 00 00  // ................
    2500: 00 00 00 00 00 00 00 00 00 00 00 00 00 00 00 00  // ................
    2510: 00 00 00 00 00 00 00 00 00 00 00 00 00 00 00 00  // ................
    2520: 00 00 00 00 00 00 00 00 00 00 00 00 00 00 00 00  // ................
    2530: 00 00 00 00 00 00 00 00 00 00 00 00 00 00 00 00  // ................
    2540: 00 00 00 00 00 00 00 00 00 00 00 00 00 00 00 00  // ................
    2550: 00 00 00 00 00 00 00 00 00 00 00 00 00 00 00 00  // ................
    2560: 00 00 00 00 00 00 00 00 00 00 00 00 00 00 00 00  // ................
    2570: 00 00 00 00 00 00 00 00 00 00 00 00 00 00 00 00  // ................
    2580: 00 00 00 00 00 00 00 00 00 00 00 00 00 00 00 00  // ................
    2590: 00 00 00 00 00 00 00 00 00 00 00 00 00 00 00 00  // ................
    25A0: 00 00 00 00 00 00 00 00 00 00 00 00 00 00 00 00  // ................
    25B0: 00 00 00 00 00 00 00 00 00 00 00 00 00 00 00 00  // ................
    25C0: 00 00 00 00 00 00 00 00 00 00 00 00 00 00 00 00  // ................
    25D0: 00 00 00 00 00 00 00 00 00 00 00 00 00 00 00 00  // ................
    25E0: 00 00 00 00 00 00 00 00 00 00 00 00 00 00 00 00  // ................
    25F0: 00 00 00 00 00 00 00 00 00 00 00 00 00 00 00 00  // ................
    2600: 00 00 00 00 00 00 00 00 00 00 00 00 00 00 00 00  // ................
    2610: 00 00 00 00 00 00 00 00 00 00 00 00 00 00 00 00  // ................
    2620: 00 00 00 00 00 00 00 00 00 00 00 00 00 00 00 00  // ................
    2630: 00 00 00 00 00 00 00 00 00 00 00 00 00 00 00 00  // ................
    2640: 00 00 00 00 00 00 00 00 00 00 00 00 00 00 00 00  // ................
    2650: 00 00 00 00 00 00 00 00 00 00 00 00 00 00 00 00  // ................
    2660: 00 00 00 00 00 00 00 00 00 00 00 00 00 00 00 00  // ................
    2670: 00 00 00 00 00 00 00 00 00 00 00 00 00 00 00 00  // ................
    2680: 00 00 00 00 00 00 00 00 00 00 00 00 00 00 00 00  // ................
    2690: 00 00 00 00 00 00 00 00 00 00 00 00 00 00 00 00  // ................
    26A0: 00 00 00 00 00 00 00 00 00 00 00 00 00 00 00 00  // ................
    26B0: 00 00 00 00 00 00 00 00 00 00 00 00 00 00 00 00  // ................
    26C0: 00 00 00 00 00 00 00 00 00 00 00 00 00 00 00 00  // ................
    26D0: 00 00 00 00 00 00 00 00 00 00 00 00 00 00 00 00  // ................
    26E0: 00 00 00 00 00 00 00 00 00 00 00 00 00 00 00 00  // ................
    26F0: 00 00 00 00 00 00 00 00 00 00 00 00 00 00 00 00  // ................
    2700: 00 00 00 00 00 00 00 00 00 00 00 00 00 00 00 00  // ................
    2710: 00 00 00 00 00 00 00 00 00 00 00 00 00 00 00 00  // ................
    2720: 00 00 00 00 00 00 00 00 00 00 00 00 00 00 00 00  // ................
    2730: 00 00 00 00 00 00 00 00 00 00 00 00 00 00 00 00  // ................
    2740: 00 00 00 00 00 00 00 00 00 00 00 00 00 00 00 00  // ................
    2750: 00 00 00 00 00 00 00 00 00 00 00 00 00 00 00 00  // ................
    2760: 00 00 00 00 00 00 00 00 00 00 00 00 00 00 00 00  // ................
    2770: 00 00 00 00 00 00 00 00 00 00 00 00 00 00 00 00  // ................
    2780: 00 00 00 00 00 00 00 00 00 00 00 00 00 00 00 00  // ................
    2790: 00 00 00 00 00 00 00 00 00 00 00 00 00 00 00 00  // ................
    27A0: 00 00 00 00 00 00 00 00 00 00 00 00 00 00 00 00  // ................
    27B0: 00 00 00 00 00 00 00 00 00 00 00 00 00 00 00 00  // ................
    27C0: 00 00 00 00 00 00 00 00 00 00 00 00 00 00 00 00  // ................
    27D0: 00 00 00 00 00 00 00 00 00 00 00 00 00 00 00 00  // ................
    27E0: 00 00 00 00 00 00 00 00 00 00 00 00 00 00 00 00  // ................
    27F0: 00 00 00 00 00 00 00 00 00 00 00 00 00 00 00 00  // ................
    2800: 00 00 00 00 00 00 00 00 00 00 00 00 00 00 00 00  // ................
    2810: 00 00 00 00 00 00 00 00 00 00 00 00 00 00 00 00  // ................
    2820: 00 00 00 00 00 00 00 00 00 00 00 00 00 00 00 00  // ................
    2830: 00 00 00 00 00 00 00 00 00 00 00 00 00 00 00 00  // ................
    2840: 00 00 00 00 00 00 00 00 00 00 00 00 00 00 00 00  // ................
    2850: 00 00 00 00 00 00 00 00 00 00 00 00 00 00 00 00  // ................
    2860: 00 00 00 00 00 00 00 00 00 00 00 00 00 00 00 00  // ................
    2870: 00 00 00 00 00 00 00 00 00 00 00 00 00 00 00 00  // ................
    2880: 00 00 00 00 00 00 00 00 00 00 00 00 00 00 00 00  // ................
    2890: 00 00 00 00 00 00 00 00 00 00 00 00 00 00 00 00  // ................
    28A0: 00 00 00 00 00 00 00 00 00 00 00 00 00 00 00 00  // ................
    28B0: 00 00 00 00 00 00 00 00 00 00 00 00 00 00 00 00  // ................
    28C0: 00 00 00 00 00 00 00 00 00 00 00 00 00 00 00 00  // ................
    28D0: 00 00 00 00 00 00 00 00 00 00 00 00 00 00 00 00  // ................
    28E0: 00 00 00 00 00 00 00 00 00 00 00 00 00 00 00 00  // ................
    28F0: 00 00 00 00 00 00 00 00 00 00 00 00 00 00 00 00  // ................
    2900: 00 00 00 00 00 00 00 00 00 00 00 00 00 00 00 00  // ................
    2910: 00 00 00 00 00 00 00 00 00 00 00 00 00 00 00 00  // ................
    2920: 00 00 00 00 00 00 00 00 00 00 00 00 00 00 00 00  // ................
    2930: 00 00 00 00 00 00 00 00 00 00 00 00 00 00 00 00  // ................
    2940: 00 00 00 00 00 00 00 00 00 00 00 00 00 00 00 00  // ................
    2950: 00 00 00 00 00 00 00 00 00 00 00 00 00 00 00 00  // ................
    2960: 00 00 00 00 00 00 00 00 00 00 00 00 00 00 00 00  // ................
    2970: 00 00 00 00 00 00 00 00 00 00 00 00 00 00 00 00  // ................
    2980: 00 00 00 00 00 00 00 00 00 00 00 00 00 00 00 00  // ................
    2990: 00 00 00 00 00 00 00 00 00 00 00 00 00 00 00 00  // ................
    29A0: 00 00 00 00 00 00 00 00 00 00 00 00 00 00 00 00  // ................
    29B0: 00 00 00 00 00 00 00 00 00 00 00 00 00 00 00 00  // ................
    29C0: 00 00 00 00 00 00 00 00 00 00 00 00 00 00 00 00  // ................
    29D0: 00 00 00 00 00 00 00 00 00 00 00 00 00 00 00 00  // ................
    29E0: 00 00 00 00 00 00 00 00 00 00 00 00 00 00 00 00  // ................
    29F0: 00 00 00 00 00 00 00 00 00 00 00 00 00 00 00 00  // ................
    2A00: 00 00 00 00 00 00 00 00 00 00 00 00 00 00 00 00  // ................
    2A10: 00 00 00 00 00 00 00 00 00 00 00 00 00 00 00 00  // ................
    2A20: 00 00 00 00 00 00 00 00 00 00 00 00 00 00 00 00  // ................
    2A30: 00 00 00 00 00 00 00 00 00 00 00 00 00 00 00 00  // ................
    2A40: 00 00 00 00 00 00 00 00 00 00 00 00 00 00 00 00  // ................
    2A50: 00 00 00 00 00 00 00 00 00 00 00 00 00 00 00 00  // ................
    2A60: 00 00 00 00 00 00 00 00 00 00 00 00 00 00 00 00  // ................
    2A70: 00 00 00 00 00 00 00 00 00 00 00 00 00 00 00 00  // ................
    2A80: 00 00 00 00 00 00 00 00 00 00 00 00 00 00 00 00  // ................
    2A90: 00 00 00 00 00 00 00 00 00 00 00 00 00 00 00 00  // ................
    2AA0: 00 00 00 00 00 00 00 00 00 00 00 00 00 00 00 00  // ................
    2AB0: 00 00 00 00 00 00 00 00 00 00 00 00 00 00 00 00  // ................
    2AC0: 00 00 00 00 00 00 00 00 00 00 00 00 00 00 00 00  // ................
    2AD0: 00 00 00 00 00 00 00 00 00 00 00 00 00 00 00 00  // ................
    2AE0: 00 00 00 00 00 00 00 00 00 00 00 00 00 00 00 00  // ................
    2AF0: 00 00 00 00 00 00 00 00 00 00 00 00 00 00 00 00  // ................
    2B00: 00 00 00 00 00 00 00 00 00 00 00 00 00 00 00 00  // ................
    2B10: 00 00 00 00 00 00 00 00 00 00 00 00 00 00 00 00  // ................
    2B20: 00 00 00 00 00 00 00 00 00 00 00 00 00 00 00 00  // ................
    2B30: 00 00 00 00 00 00 00 00 00 00 00 00 00 00 00 00  // ................
    2B40: 00 00 00 00 00 00 00 00 00 00 00 00 00 00 00 00  // ................
    2B50: 00 00 00 00 00 00 00 00 00 00 00 00 00 00 00 00  // ................
    2B60: 00 00 00 00 00 00 00 00 00 00 00 00 00 00 00 00  // ................
    2B70: 00 00 00 00 00 00 00 00 00 00 00 00 00 00 00 00  // ................
    2B80: 00 00 00 00 00 00 00 00 00 00 00 00 00 00 00 00  // ................
    2B90: 00 00 00 00 00 00 00 00 00 00 00 00 00 00 00 00  // ................
    2BA0: 00 00 00 00 00 00 00 00 00 00 00 00 00 00 00 00  // ................
    2BB0: 00 00 00 00 00 00 00 00 00 00 00 00 00 00 00 00  // ................
    2BC0: 00 00 00 00 00 00 00 00 00 00 00 00 00 00 00 00  // ................
    2BD0: 00 00 00 00 00 00 00 00 00 00 00 00 00 00 00 00  // ................
    2BE0: 00 00 00 00 00 00 00 00 00 00 00 00 00 00 00 00  // ................
    2BF0: 00 00 00 00 00 00 00 00 00 00 00 00 00 00 00 00  // ................
    2C00: 00 00 00 00 00 00 00 00 00 00 00 00 00 00 00 00  // ................
    2C10: 00 00 00 00 00 00 00 00 00 00 00 00 00 00 00 00  // ................
    2C20: 00 00 00 00 00 00 00 00 00 00 00 00 00 00 00 00  // ................
    2C30: 00 00 00 00 00 00 00 00 00 00 00 00 00 00 00 00  // ................
    2C40: 00 00 00 00 00 00 00 00 00 00 00 00 00 00 00 00  // ................
    2C50: 00 00 00 00 00 00 00 00 00 00 00 00 00 00 00 00  // ................
    2C60: 00 00 00 00 00 00 00 00 00 00 00 00 00 00 00 00  // ................
    2C70: 00 00 00 00 00 00 00 00 00 00 00 00 00 00 00 00  // ................
    2C80: 00 00 00 00 00 00 00 00 00 00 00 00 00 00 00 00  // ................
    2C90: 00 00 00 00 00 00 00 00 00 00 00 00 00 00 00 00  // ................
    2CA0: 00 00 00 00 00 00 00 00 00 00 00 00 00 00 00 00  // ................
    2CB0: 00 00 00 00 00 00 00 00 00 00 00 00 00 00 00 00  // ................
    2CC0: 00 00 00 00 00 00 00 00 00 00 00 00 00 00 00 00  // ................
    2CD0: 00 00 00 00 00 00 00 00 00 00 00 00 00 00 00 00  // ................
    2CE0: 00 00 00 00 00 00 00 00 00 00 00 00 00 00 00 00  // ................
    2CF0: 00 00 00 00 00 00 00 00 00 00 00 00 00 00 00 00  // ................
    2D00: 00 00 00 00 00 00 00 00 00 00 00 00 00 00 00 00  // ................
    2D10: 00 00 00 00 00 00 00 00 00 00 00 00 00 00 00 00  // ................
    2D20: 00 00 00 00 00 00 00 00 00 00 00 00 00 00 00 00  // ................
    2D30: 00 00 00 00 00 00 00 00 00 00 00 00 00 00 00 00  // ................
    2D40: 00 00 00 00 00 00 00 00 00 00 00 00 00 00 00 00  // ................
    2D50: 00 00 00 00 00 00 00 00 00 00 00 00 00 00 00 00  // ................
    2D60: 00 00 00 00 00 00 00 00 00 00 00 00 00 00 00 00  // ................
    2D70: 00 00 00 00 00 00 00 00 00 00 00 00 00 00 00 00  // ................
    2D80: 00 00 00 00 00 00 00 00 00 00 00 00 00 00 00 00  // ................
    2D90: 00 00 00 00 00 00 00 00 00 00 00 00 00 00 00 00  // ................
    2DA0: 00 00 00 00 00 00 00 00 00 00 00 00 00 00 00 00  // ................
    2DB0: 00 00 00 00 00 00 00 00 00 00 00 00 00 00 00 00  // ................
    2DC0: 00 00 00 00 00 00 00 00 00 00 00 00 00 00 00 00  // ................
    2DD0: 00 00 00 00 00 00 00 00 00 00 00 00 00 00 00 00  // ................
    2DE0: 00 00 00 00 00 00 00 00 00 00 00 00 00 00 00 00  // ................
    2DF0: 00 00 00 00 00 00 00 00 00 00 00 00 00 00 00 00  // ................
    2E00: 00 00 00 00 00 00 00 00 00 00 00 00 00 00 00 00  // ................
    2E10: 00 00 00 00 00 00 00 00 00 00 00 00 00 00 00 00  // ................
    2E20: 00 00 00 00 00 00 00 00 00 00 00 00 00 00 00 00  // ................
    2E30: 00 00 00 00 00 00 00 00 00 00 00 00 00 00 00 00  // ................
    2E40: 00 00 00 00 00 00 00 00 00 00 00 00 00 00 00 00  // ................
    2E50: 00 00 00 00 00 00 00 00 00 00 00 00 00 00 00 00  // ................
    2E60: 00 00 00 00 00 00 00 00 00 00 00 00 00 00 00 00  // ................
    2E70: 00 00 00 00 00 00 00 00 00 00 00 00 00 00 00 00  // ................
    2E80: 00 00 00 00 00 00 00 00 00 00 00 00 00 00 00 00  // ................
    2E90: 00 00 00 00 00 00 00 00 00 00 00 00 00 00 00 00  // ................
    2EA0: 00 00 00 00 00 00 00 00 00 00 00 00 00 00 00 00  // ................
    2EB0: 00 00 00 00 00 00 00 00 00 00 00 00 00 00 00 00  // ................
    2EC0: 00 00 00 00 00 00 00 00 00 00 00 00 00 00 00 00  // ................
    2ED0: 00 00 00 00 00 00 00 00 00 00 00 00 00 00 00 00  // ................
    2EE0: 00 00 00 00 00 00 00 00 00 00 00 00 00 00 00 00  // ................
    2EF0: 00 00 00 00 00 00 00 00 00 00 00 00 00 00 00 00  // ................
    2F00: 00 00 00 00 00 00 00 00 00 00 00 00 00 00 00 00  // ................
    2F10: 00 00 00 00 00 00 00 00 00 00 00 00 00 00 00 00  // ................
    2F20: 00 00 00 00 00 00 00 00 00 00 00 00 00 00 00 00  // ................
    2F30: 00 00 00 00 00 00 00 00 00 00 00 00 00 00 00 00  // ................
    2F40: 00 00 00 00 00 00 00 00 00 00 00 00 00 00 00 00  // ................
    2F50: 00 00 00 00 00 00 00 00 00 00 00 00 00 00 00 00  // ................
    2F60: 00 00 00 00 00 00 00 00 00 00 00 00 00 00 00 00  // ................
    2F70: 00 00 00 00 00 00 00 00 00 00 00 00 00 00 00 00  // ................
    2F80: 00 00 00 00 00 00 00 00 00 00 00 00 00 00 00 00  // ................
    2F90: 00 00 00 00 00 00 00 00 00 00 00 00 00 00 00 00  // ................
    2FA0: 00 00 00 00 00 00 00 00 00 00 00 00 00 00 00 00  // ................
    2FB0: 00 00 00 00 00 00 00 00 00 00 00 00 00 00 00 00  // ................
    2FC0: 00 00 00 00 00 00 00 00 00 00 00 00 00 00 00 00  // ................
    2FD0: 00 00 00 00 00 00 00 00 00 00 00 00 00 00 00 00  // ................
    2FE0: 00 00 00 00 00 00 00 00 00 00 00 00 00 00 00 00  // ................
    2FF0: 00 00 00 00 00 00 00 00 00 00 00 00 00 00 00 00  // ................
    3000: 00 00 00 00 00 00 00 00 00 00 00 00 00 00 00 00  // ................
    3010: 00 00 00 00 00 00 00 00 00 00 00 00 00 00 00 00  // ................
    3020: 00 00 00 00 00 00 00 00 00 00 00 00 00 00 00 00  // ................
    3030: 00 00 00 00 00 00 00 00 50 00 03 01 C8 00 00 00  // ........P.......
    3040: 00 00 00 00 00 00 00 00 7D 09 32 02 FF 00 00 00  // ........}.2.....
    3050: 00 00 00 00 00 00 00 00 00 00 00 00 C8 00 00 00  // ................
    3060: 00 00 00 00 00 00 00 00 7D 09 32 02 FF 00 00 00  // ........}.2.....
    3070: 00 00 00 00 00 00 00 00 00 00 00 00 00 00 00 00  // ................
    3080: 00 00 00 00 00 00 00 00 D4 00 04 04 40 06 00 00  // ............@...
    3090: 24 F4 00 00 60 09 60 09 00 00 00 00 00 00 00 00  // $...`.`.........
    30A0: 5E 01 4E 0C 01 01 00 00 55 00 00 00 60 09 BF 15  // ^.N.....U...`...
    30B0: 01 03 04 01 00 05 05 00 00 00 00 00 00 46 C3 23  // .............F.#
    30C0: 00 00 00 00 00 00 00 00 00 00 00 00 54 00 01 00  // ............T...
    30D0: 00 00 03 0C 00 00 00 00 A0 00 00 00 10 11 3D 10  // ..............=.
    30E0: 4D 1C 02 00 00 45 00 00 00 00 00 00 00 00 00 00  // M....E..........
    30F0: 00 00 00 00 00 00 AA 0A 22 22 02 00 00 F0 01 00  // ........""......
    3100: 00 00 00 00 00 00 00 00 00 00 00 00 00 00 00 00  // ................
    3110: 00 00 00 00 00 00 00 00 00 00 00 00 00 00 00 00  // ................
    3120: 00 00 00 00 00 00 00 00 00 00 00 00 00 00 00 00  // ................
    3130: 00 00 00 00 00 00 00 00 00 00 00 00 00 00 00 00  // ................
    3140: 00 00 00 00 00 00 00 00 00 00 00 00 00 00 00 00  // ................
    3150: 00 00 00 00 00 00 00 00 00 00 00 00 54 00 02 01  // ............T...
    3160: B5 5D 00 00 00 00 01 00 B5 5D 00 00 08 08 02 00  // .].......]......
    3170: B5 5D 00 00 10 10 03 00 B5 5D 00 00 18 14 04 00  // .].......]......
    3180: B5 5D 00 00 1A 18 05 00 91 5D 00 00 08 08 90 00  // .].......]......
    3190: 95 5D 00 00 08 08 91 00 99 5D 00 00 08 08 92 00  // .].......]......
    31A0: 9D 5D 00 00 08 08 93 00 A1 5D 00 00 08 08 94 00  // .].......]......
    31B0: 00 04 02 02 00 00 00 00 00 00 00 00 00 00 00 00  // ................
    31C0: 00 00 00 00 77 01 00 00 00 00 23 04 00 00 00 04  // ....w.....#.....
    31D0: C8 00 00 00 00 00 00 00 00 00 00 00 00 09 32 00  // ..............2.
    31E0: 00 00 00 00 00 00 00 00 00 00 00 00 00 00 00 00  // ................
    31F0: C8 00 00 00 00 00 00 00 00 00 00 00 00 09 32 00  // ..............2.
    3200: 00 00 00 00 00 00 00 00 00 00 00 00 00 00 00 00  // ................
    3210: 00 00 00 00 00 00 00 00 00 00 00 00 00 00 00 00  // ................
    3220: 00 00 00 00 00 00 00 00 00 00 00 00 00 00 00 00  // ................
    3230: 8C 00 01 01 00 00 00 00 00 00 00 00 00 00 00 00  // ................
    3240: 00 00 00 00 02 00 10 01 14 31 00 00 00 00 E4 00  // .........1......
    3250: 00 00 00 00 08 00 10 02 13 31 01 01 00 00 E4 00  // .........1......
    3260: 00 00 00 00 80 00 20 02 13 32 02 02 00 00 E4 00  // ...... ..2......
    3270: 00 01 30 00 00 02 30 02 13 33 03 03 00 00 E4 00  // ..0...0..3......
    3280: 00 01 30 00 00 04 40 02 13 34 04 04 00 00 E4 00  // ..0...@..4......
    3290: 00 01 30 00 00 00 00 00 00 00 00 00 00 00 00 00  // ..0.............
    32A0: 00 00 00 00 00 00 00 00 00 00 00 00 00 00 00 00  // ................
    32B0: 00 00 00 00 00 00 00 00 00 00 00 00 00 00 00 00  // ................
    32C0: 00 00 00 00 00 00 00 00 00 00 00 00 00 00 00 00  // ................
    32D0: 00 00 00 00 00 00 00 00 00 00 00 00 00 00 00 00  // ................
    32E0: 00 00 00 00 00 00 00 00 00 00 00 00 00 00 00 00  // ................
    32F0: 00 00 00 00 00 00 00 00 00 00 00 00 00 00 00 00  // ................
    3300: 00 00 00 00 00 00 00 00 00 00 00 00 00 00 00 00  // ................
    3310: 00 00 00 00 00 00 00 00 00 00 00 00 00 00 00 00  // ................
    3320: 00 00 00 00 00 00 00 00 01 00 00 00 01 02 00 00  // ................
    3330: 00 00 00 00 00 00 00 00 00 00 00 00 00 00 00 00  // ................
    3340: 00 00 00 00 00 00 00 00 00 00 00 00 00 00 00 00  // ................
    3350: 00 00 00 00 00 00 00 00 00 00 00 00 00 00 00 00  // ................
    3360: 00 00 00 00 00 00 00 00 00 00 00 00 00 00 00 00  // ................
    3370: 00 00 00 00 00 00 00 00 00 00 00 00 00 00 00 00  // ................
    3380: 00 00 00 00 00 00 00 00 00 00 00 00 00 00 00 00  // ................
    3390: 00 00 00 00 00 00 00 00 00 00 00 00 00 00 00 00  // ................
    33A0: 00 00 00 00 00 00 00 00 00 00 00 00 00 00 00 00  // ................
    33B0: 00 00 00 00 00 00 00 00 00 00 00 00 00 00 00 00  // ................
    33C0: 00 00 00 00 00 00 00 00 00 00 00 00 00 00 00 00  // ................
    33D0: 00 00 00 00 00 00 00 00 00 00 00 00 00 00 00 00  // ................
    33E0: 00 00 00 00 00 00 00 00 00 00 00 00 00 00 00 00  // ................
    33F0: 00 00 00 00 00 00 00 00 00 00 00 00 00 00 00 00  // ................
    3400: 00 00 00 00 00 00 00 00 00 00 00 00 00 00 00 00  // ................
    3410: 00 00 00 00 00 00 00 00 00 00 00 00 00 00 00 00  // ................
    3420: 00 00 00 00 00 00 00 00 00 00 00 00 00 00 00 00  // ................
    3430: 00 00 00 00 00 00 00 00 00 00 00 00 00 00 00 00  // ................
    3440: 00 00 00 00 00 00 00 00 00 00 00 00 00 00 00 00  // ................
    3450: 00 00 00 00 00 00 00 00 00 00 00 00 00 00 00 00  // ................
    3460: 00 00 00 00 00 00 00 00 00 00 00 00 00 00 00 00  // ................
    3470: 00 00 00 00 00 00 00 00 00 00 00 00 00 00 00 00  // ................
    3480: 00 00 00 00 00 00 00 00 00 00 00 00 00 00 00 00  // ................
    3490: 00 00 00 00 00 00 00 00 00 00 00 00 00 00 00 00  // ................
    34A0: 00 00 00 00 00 00 00 00 00 00 00 00 00 00 00 00  // ................
    34B0: 00 00 00 00 00 00 00 00 00 00 00 00 00 00 00 00  // ................
    34C0: 00 00 00 00 00 00 00 00 00 00 00 00 00 00 00 00  // ................
    34D0: 00 00 00 00 00 00 00 00 00 00 00 00 00 00 00 00  // ................
    34E0: 00 00 00 00 00 00 00 00 00 00 00 00 00 00 00 00  // ................
    34F0: 00 00 00 00 00 00 00 00 00 00 00 00 00 00 00 00  // ................
    3500: 00 00 00 00 00 00 00 00 00 00 00 00 00 00 00 00  // ................
    3510: 00 00 00 00 00 00 00 00 00 00 00 00 00 00 00 00  // ................
    3520: 00 00 00 00 00 00 00 00 00 00 00 00 00 00 00 00  // ................
    3530: 00 00 00 00 00 00 00 00 00 00 00 00 00 00 00 00  // ................
    3540: 00 00 00 00 00 00 00 00 00 00 00 00 00 00 00 00  // ................
    3550: 00 00 00 00 00 00 00 00 00 00 00 00 00 00 00 00  // ................
    3560: 00 00 00 00 00 00 00 00 00 00 00 00 00 00 00 00  // ................
    3570: 00 00 00 00 00 00 00 00 00 00 00 00 00 00 00 00  // ................
    3580: 00 00 00 00 00 00 00 00 00 00 00 00 00 00 00 00  // ................
    3590: 00 00 00 00 00 00 00 00 00 00 00 00 00 00 00 00  // ................
    35A0: 00 00 00 00 00 00 00 00 00 00 00 00 00 00 00 00  // ................
    35B0: CD 00 01 04 8A 06 06 00 14 31 68 00 1E 21 00 00  // .........1h..!..
    35C0: 95 00 00 00 02 00 00 00 13 31 71 00 1E 22 00 00  // .........1q.."..
    35D0: 9C 00 00 00 08 00 00 00 13 32 7A 00 20 21 00 00  // .........2z. !..
    35E0: A3 00 00 00 80 00 00 00 13 33 83 00 20 22 00 00  // .........3.. "..
    35F0: AA 00 00 00 00 02 00 00 13 34 8C 00 21 21 00 00  // .........4..!!..
    3600: B1 00 00 00 00 04 00 00 03 71 B8 00 00 00 00 00  // .........q......
    3610: 00 00 00 00 00 00 00 00 01 04 90 00 02 04 01 00  // ................
    3620: FF 01 04 91 00 02 04 02 00 FF 01 04 92 00 02 04  // ................
    3630: 03 00 FF 01 04 93 00 02 04 04 00 FF 01 04 94 00  // ................
    3640: 02 04 05 00 FF 14 06 0F 00 00 00 FF 14 06 0F 00  // ................
    3650: 00 00 FF 14 06 3F 01 00 00 FF 14 06 3F 01 00 00  // .....?......?...
    3660: FF 14 06 3F 01 00 00 FF 10 0A 01 02 03 04 05 06  // ...?............
    3670: 07 08 11 0A 90 91 92 93 94 95 96 97 FF 00 00 00  // ................
    3680: 08 00 01 01 00 00 00 00 70 01 02 01 D6 09 80 02  // ........p.......
    3690: A0 00 E0 01 2D 00 10 00 60 00 0A 00 02 00 00 00  // ....-...`.......
    36A0: 00 00 08 08 06 00 12 3C A0 0F 20 03 00 01 58 02  // .......<.. ...X.
    36B0: 1C 00 28 00 80 00 01 00 04 00 00 00 00 00 00 00  // ..(.............
    36C0: 00 00 6A 3C 64 19 00 04 40 01 00 03 26 00 18 00  // ..j<d...@...&...
    36D0: 88 00 03 00 06 00 00 00 00 00 00 00 06 00 55 3C  // ..............U<
    36E0: 01 1D 00 05 72 01 D0 02 1E 00 6E 00 28 00 05 00  // ....r.....n.(...
    36F0: 05 00 00 00 00 00 00 00 00 00 E8 3C 30 2A 00 05  // ...........<0*..
    3700: 08 02 C0 03 28 00 60 00 70 00 01 00 03 00 00 00  // ....(.`.p.......
    3710: 00 00 00 00 00 00 E9 3C 30 2A 00 05 98 01 00 04  // .......<0*......
    3720: 2A 00 30 00 70 00 01 00 03 00 00 00 00 00 00 00  // *.0.p...........
    3730: 00 00 EA 3C 66 21 56 05 AA 01 00 03 1E 00 46 00  // ...<f!V.......F.
    3740: 8F 00 03 00 03 00 00 00 00 00 00 00 02 00 ED 3C  // ...............<
    3750: 8F 2F 78 05 D0 01 1A 04 27 00 58 00 90 00 03 00  // ./x.....'.X.....
    3760: 04 00 00 00 00 00 00 00 02 00 EB 3C 48 3F 40 06  // ...........<H?@.
    3770: 30 02 B0 04 32 00 40 00 C0 00 01 00 03 00 00 00  // 0...2.@.........
    3780: 00 00 00 00 00 00 EC 3C 02 3A 80 07 18 01 38 04  // .......<.:....8.
    3790: 2D 00 58 00 2C 00 04 00 05 00 00 00 00 00 00 00  // -.X.,...........
    37A0: 02 00 F3 3C 7D 4B 80 07 A0 02 B0 04 2D 00 88 00  // ...<}K......-...
    37B0: C8 00 03 00 06 00 00 00 00 00 00 00 02 00 F0 3C  // ...............<
    37C0: 68 5B 80 07 A8 02 A0 05 3C 00 80 00 D0 00 01 00  // h[......<.......
    37D0: 03 00 00 00 00 00 00 00 02 00 F1 3C 32 96 00 0A  // ...........<2...
    37E0: B0 03 40 06 3A 00 C0 00 18 01 03 00 06 00 00 00  // ..@.:...........
    37F0: 00 00 00 00 02 00 F2 3C 34 00 02 01 00 00 00 00  // .......<4.......
    3800: 00 2A 00 2A 00 00 2A 2A 2A 00 00 2A 00 2A 2A 15  // .*.*..***..*.**.
    3810: 00 2A 2A 2A 15 15 15 15 15 3F 15 3F 15 15 3F 3F  // .***.....?.?..??
    3820: 3F 15 15 3F 15 3F 3F 3F 15 3F 3F 3F A4 00 01 01  // ?..?.???.???....
    3830: 10 01 06 12 11 01 16 12 21 01 0A 12 13 01 06 6A  // ........!......j
    3840: 14 01 16 6A 22 01 0A 6A 16 01 06 55 17 01 16 55  // ...j"..j...U...U
    3850: 23 01 0A 55 63 01 16 E8 64 01 0A E8 65 01 16 E9  // #..Uc...d...e...
    3860: 66 01 0A E9 19 01 06 EA 1A 01 16 EA 24 01 0A EA  // f...........$...
    3870: 47 01 16 ED 48 01 0A ED 45 01 16 EB 46 01 0A EB  // G...H...E...F...
    3880: 75 01 16 EC 76 01 0A EC A5 01 16 F3 A6 01 0A F3  // u...v...........
    3890: A0 01 16 F0 A1 01 0A F0 A2 01 16 F1 A3 01 0A F1  // ................
    38A0: A4 01 16 F2 A5 01 0A F2 D2 01 16 70 D4 01 0A 70  // ...........p...p
    38B0: D8 01 16 71 D9 01 0A 71 E2 01 16 72 E4 01 0A 72  // ...q...q...r...r
    38C0: E8 01 16 73 E9 01 0A 73 F5 01 16 74 F6 01 0A 74  // ...s...s...t...t
    38D0: 20 00 02 02 02 00 08 00 80 00 00 02 00 04 20 00  //  ............. .
    38E0: 00 08 40 00 01 00 04 00 10 00 00 01 FF FF FF FF  // ..@.............
    38F0: 0C 00 02 01 00 00 00 00 00 00 00 00 6C 00 03 04  // ............l...
    3900: 18 00 0C 16 20 4E 00 00 20 4E 00 00 01 00 00 00  // .... N.. N......
    3910: 40 04 00 00 4C 00 00 00 00 00 00 00 00 00 00 00  // @...L...........
    3920: 00 00 01 00 80 00 00 00 00 00 00 00 00 00 00 00  // ................
    3930: 00 00 00 00 00 00 00 00 00 00 00 00 00 00 00 00  // ................
    3940: 00 00 00 00 00 00 00 00 00 00 00 00 00 00 00 00  // ................
    3950: 00 08 00 00 00 00 00 00 00 00 00 00 00 00 00 00  // ................
    3960: 00 00 00 00 8A 06 FC 13 1C 00 03 01 00 0D 00 00  // ................
    3970: 00 00 00 00 77 01 35 0C C0 12 00 00 FF 00 FF 00  // ....w.5.........
    3980: FF 00 00 00 88 00 03 00 00 0B 01 00 04 02 02 02  // ................
    3990: 83 14 01 00 84 14 01 00 85 14 01 00 86 14 01 00  // ................
    39A0: 6F 14 01 00 32 14 01 00 2E 6A 01 00 10 27 00 00  // o...2....j...'..
    39B0: 04 02 01 00 00 00 00 00 00 00 00 00 01 00 00 00  // ................
    39C0: 00 00 00 00 00 00 00 00 00 00 00 00 00 00 00 00  // ................
    39D0: 00 00 00 00 00 00 00 00 00 00 00 00 00 00 00 00  // ................
    39E0: 00 00 00 00 00 00 00 00 00 00 00 00 00 00 00 00  // ................
    39F0: 00 00 00 00 00 00 00 00 00 00 00 00 00 00 00 00  // ................
    3A00: 00 00 00 00 00 00 00 00 00 00 00 00 00 00 00 00  // ................
    3A10: 00 00 00 00 00 00 00 00 A2 00 02 01 54 3A 00 00  // ............T:..
    3A20: 00 00 00 00 00 00 00 00 08 41 00 00 00 00 00 00  // .........A......
    3A30: 00 00 00 00 00 00 00 00 00 00 00 00 00 00 00 00  // ................
    3A40: 00 00 00 00 00 00 00 00 4C 3C 00 00 00 00 00 00  // ........L<......
    3A50: 00 00 00 00 00 00 00 00 00 00 00 00 00 00 00 00  // ................
    3A60: 00 00 00 00 00 00 00 00 00 00 00 00 00 00 00 00  // ................
    3A70: 00 00 00 00 00 00 00 00 00 00 00 00 00 00 00 00  // ................
    3A80: 00 00 00 00 00 00 F4 3A 00 00 00 00 00 00 00 00  // .......:........
    3A90: 00 00 00 00 00 00 00 00 00 00 00 00 00 00 00 00  // ................
    3AA0: 74 3C 00 00 00 00 00 00 00 00 00 00 00 00 00 00  // t<..............
    3AB0: 00 00 00 00 00 00 00 00 00 00 00 00 9E 00 02 01  // ................
    3AC0: 00 00 37 00 00 66 16 3E 0D 42 00 00 44 25 00 03  // ..7..f.>.B..D%..
    3AD0: 0C 41 04 00 4C 0D 41 02 00 44 25 00 0D 25 4C 00  // .A..L.A..D%..%L.
    3AE0: 02 52 16 01 01 35 39 01 01 01 36 39 02 01 05 0C  // .R...59...69....
    3AF0: 00 5C A3 06 00 01 00 37 39 0D 00 03 01 41 01 15  // .\.....79....A..
    3B00: 05 41 18 01 02 C4 00 41 03 01 41 01 1B 05 41 08  // .A.....A..A...A.
    3B10: 01 02 C9 00 41 03 00 41 37 39 01 02 3B 39 41 03  // ....A..A79..;9A.
    3B20: 01 40 02 33 01 40 01 2D 02 40 41 01 02 3C 39 40  // .@.3.@.-.@A..<9@
    3B30: 03 00 41 E3 0D 3E 05 41 00 00 00 00 44 93 00 33  // ..A..>.A....D..3
    3B40: 05 41 01 00 00 00 1B 05 41 0B 01 02 06 00 41 0D  // .A......A.....A.
    3B50: 25 20 0E 03 0D 65 53 00 02 5B 00 00 58 01 04 00  // % ...eS..[..X...
    3B60: 0C 00 37 00 00 3D A5 04 01 44 E5 00 66 04 03 04  // ..7..=...D..f...
    3B70: 46 28 00 3E 05 46 00 00 00 00 49 43 00 03 01 00  // F(.>.F....IC....
    3B80: 00 03 01 01 01 03 01 02 02 52 16 03 01 46 00 1B  // .........R...F..
    3B90: 05 46 08 02 02 00 00 02 02 01 01 02 02 02 02 3D  // .F.............=
    3BA0: 25 04 00 49 4E 00 2C 02 01 46 3D 65 04 00 49 59  // %..IN.,..F=e..IY
    3BB0: 00 2C 02 03 46 03 01 40 05 09 05 40 00 00 00 FC  // .,..F..@...@....
    3BC0: 3E 05 40 00 00 00 80 49 81 00 55 00 00 55 00 01  // >.@....I..U..U..
    3BD0: 01 05 0C 00 B8 51 04 00 01 01 0D 00 06 01 05 0C  // .....Q..........
    3BE0: 00 BC 51 04 00 01 05 0D 00 00 00 00 00 01 05 0C  // ..Q.............
    3BF0: 00 A4 51 04 00 01 01 0D 00 00 01 05 0C 00 A8 51  // ..Q............Q
    3C00: 04 00 01 01 0D 00 01 01 05 0C 00 AC 51 04 00 01  // ............Q...
    3C10: 01 0D 00 02 01 05 0C 00 B0 51 04 00 01 01 0D 00  // .........Q......
    3C20: 03 01 05 0C 00 B4 51 04 00 01 01 0D 00 05 01 05  // ......Q.........
    3C30: 0C 00 C8 50 04 00 4A E5 0D 00 80 44 D2 00 43 57  // ...P..J....D..CW
    3C40: 01 01 05 0C 00 84 09 81 03 01 05 0D 00 00 00 07  // ................
    3C50: 00 01 05 0C 00 84 09 81 03 3C 05 0D 00 00 00 00  // .........<......
    3C60: 80 49 FD 00 01 05 0C 00 04 52 04 00 01 01 0D 00  // .I.......R......
    3C70: 00 01 05 0C 00 08 52 04 00 01 01 0D 00 01 01 05  // ......R.........
    3C80: 0C 00 00 52 04 00 03 00 41 0D 00 09 05 41 C1 FF  // ...R....A....A..
    3C90: FF FF 0F 05 41 15 00 00 00 01 05 0C 00 00 52 04  // ....A.........R.
    3CA0: 00 01 02 0D 00 41 01 05 0C 00 A4 50 04 00 02 00  // .....A.....P....
    3CB0: 06 0D 00 5B 28 00 02 01 00 00 37 00 00 01 05 0C  // ...[(.....7.....
    3CC0: 00 B0 A3 06 00 02 00 00 0D 00 02 01 01 00 01 05  // ................
    3CD0: 0C 00 B4 A3 06 00 02 00 02 0D 00 5B 94 04 01 02  // ...........[....
    3CE0: 08 00 37 00 00 3D 25 00 00 44 05 01 4A 05 A3 36  // ..7..=%..D..J..6
    3CF0: 02 00 00 00 44 93 04 03 05 00 32 00 00 00 03 00  // ....D.....2.....
    3D00: 40 97 36 03 00 41 96 36 03 05 46 00 31 00 00 04  // @.6..A.6..F.1...
    3D10: 02 04 40 3E 02 41 40 49 42 00 04 02 05 40 03 03  // ..@>.A@IB....@..
    3D20: 41 05 3E 02 41 40 48 5C 00 33 02 40 41 03 03 41  // A.>.A@H\.3.@A..A
    3D30: 06 33 02 41 40 43 60 00 33 02 41 40 3E 05 41 00  // .3.A@C`.3.A@>.A.
    3D40: 00 00 00 44 80 00 33 05 00 01 00 00 00 3E 05 00  // ...D..3......>..
    3D50: 00 00 00 00 44 93 04 51 14 43 22 00 03 03 40 05  // ....D..Q.C"...@.
    3D60: 03 02 41 40 2D 05 40 00 00 00 00 03 02 46 40 04  // ..A@-.@......F@.
    3D70: 01 00 00 04 01 01 01 04 01 02 02 04 01 03 03 04  // ................
    3D80: 01 04 04 04 01 05 05 04 01 06 06 2D 05 41 40 00  // ...........-.A@.
    3D90: 00 00 3E 05 41 00 20 00 00 45 C7 00 27 05 41 00  // ..>.A. ..E..'.A.
    3DA0: 20 00 00 03 05 46 00 31 00 00 04 02 05 41 01 02  //  ....F.1.....A..
    3DB0: 96 36 41 03 05 00 80 1A 06 00 03 00 41 97 36 03  // .6A.........A.6.
    3DC0: 00 40 96 36 3E 02 41 40 44 93 04 33 05 00 01 00  // .@.6>.A@D..3....
    3DD0: 00 00 3E 05 00 00 00 00 00 44 93 04 51 14 43 DE  // ..>......D..Q.C.
    3DE0: 00 43 E7 01 3D 65 00 01 44 48 01 4A 05 B6 36 00  // .C..=e..DH.J..6.
    3DF0: 00 01 00 49 48 01 4A 05 C0 36 01 00 00 00 44 48  // ...IH.J..6....DH
    3E00: 01 01 05 0C 00 84 09 81 03 01 05 0D 00 00 00 06  // ................
    3E10: 00 01 05 0C 00 84 09 81 03 3C 05 0D 00 00 00 00  // .........<......
    3E20: 80 49 3D 01 4A 05 C0 36 01 00 00 00 49 E7 01 01  // .I=.J..6....I...
    3E30: 05 B8 36 00 00 02 10 03 05 41 0A 00 00 00 33 05  // ..6......A....3.
    3E40: 41 01 00 00 00 3E 05 41 00 00 00 00 44 A5 01 51  // A....>.A....D..Q
    3E50: 0A 3C 05 B8 36 00 00 02 00 49 62 01 03 05 41 04  // .<..6....Ib...A.
    3E60: 00 00 00 51 0A 33 05 41 01 00 00 00 3E 05 41 00  // ...Q.3.A....>.A.
    3E70: 00 00 00 44 A5 01 3C 05 AA 36 AD DE AD DE 49 87  // ...D..<..6....I.
    3E80: 01 01 05 B8 36 00 00 00 00 0D 05 C0 36 01 00 00  // ....6.......6...
    3E90: 00 07 05 B6 36 FF FF FE FF 0D 05 02 38 00 01 00  // ....6.......8...
    3EA0: 00 51 0A 01 05 97 36 00 00 00 00 01 05 96 36 00  // .Q....6.......6.
    3EB0: 00 00 00 01 05 A3 36 00 00 00 00 07 05 02 38 FF  // ......6.......8.
    3EC0: FE FF FF 66 0B 03 04 00 04 00 03 02 01 00 15 05  // ...f............
    3ED0: 00 0A 1B 05 01 16 43 49 02 02 05 00 00 00 00 00  // ......CI........
    3EE0: 02 02 02 00 2C 05 02 00 00 02 00 02 02 03 01 02  // ....,...........
    3EF0: 05 04 01 00 00 00 02 05 05 00 00 05 80 52 35 02  // .............R5.
    3F00: 05 00 00 00 00 00 02 02 02 00 2C 05 02 00 00 00  // ..........,.....
    3F10: 00 02 02 03 01 02 05 04 01 00 00 00 02 05 05 00  // ................
    3F20: 20 00 80 52 35 66 16 3E 0D 42 00 00 44 C3 02 56  //  ..R5f.>.B..D..V
    3F30: 00 41 03 0C 41 00 00 2D 05 41 0F 00 00 00 09 05  // .A..A..-.A......
    3F40: 41 F0 FF 00 00 2D 0A 41 42 03 05 46 00 84 00 00  // A....-.AB..F....
    3F50: 56 08 42 04 04 00 00 00 2D 05 46 04 00 00 00 2D  // V.B.....-.F....-
    3F60: 05 42 04 00 00 00 3E 02 42 41 45 77 02 02 05 00  // .B....>.BAEw....
    3F70: 00 84 00 00 2C 02 00 00 02 02 02 00 2C 05 02 00  // ....,.......,...
    3F80: 00 02 00 02 02 03 01 02 02 01 01 02 05 04 00 00  // ................
    3F90: 00 00 02 05 05 00 00 00 40 02 0A 05 41 52 35 52  // ........@...AR5R
    3FA0: 16 02 01 02 00 14 05 00 18 1A 05 02 08 43 98 03  // .............C..
    3FB0: 03 02 41 00 2D 05 41 00 00 02 00 2D 01 41 00 01  // ..A.-.A....-.A..
    3FC0: 02 7B 36 41 03 02 40 01 2D 01 40 02 01 02 7C 36  // .{6A..@.-.@...|6
    3FD0: 40 01 05 68 36 00 00 00 03 01 05 70 36 FF FF 01  // @..h6......p6...
    3FE0: 83 03 02 41 00 2D 05 41 00 00 04 00 2D 01 41 00  // ...A.-.A....-.A.
    3FF0: 01 02 7D 36 41 03 02 40 01 2D 01 40 02 01 02 7E  // ..}6A..@.-.@...~
    4000: 36 40 01 05 69 36 00 00 00 04 01 05 71 36 FF FF  // 6@..i6......q6..
    4010: 00 84 03 02 41 00 2D 05 41 00 00 05 00 2D 01 41  // ....A.-.A....-.A
    4020: 00 01 02 7F 36 41 03 02 40 01 2D 01 40 02 01 02  // ....6A..@.-.@...
    4030: 80 36 40 01 05 6A 36 00 00 00 05 01 05 72 36 FF  // .6@..j6......r6.
    4040: FF 00 85 03 02 41 00 2D 05 41 00 00 06 00 2D 01  // .....A.-.A....-.
    4050: 41 00 01 02 81 36 41 03 02 40 01 2D 01 40 02 01  // A....6A..@.-.@..
    4060: 02 82 36 40 01 05 6B 36 00 00 00 06 01 05 73 36  // ..6@..k6......s6
    4070: FF FF 00 86 03 05 46 00 31 00 00 03 02 41 00 2D  // ......F.1....A.-
    4080: 05 41 00 00 00 00 2D 01 41 00 03 02 40 01 2D 01  // .A....-.A...@.-.
    4090: 40 02 04 02 00 41 04 02 01 40 04 05 04 00 00 00  // @....A...@......
    40A0: 00 04 05 05 00 00 00 00 04 05 06 00 20 00 00 43  // ............ ..C
    40B0: 08 04 01 05 94 36 00 00 00 80 01 05 95 36 00 20  // .....6.......6. 
    40C0: 00 00 01 02 56 36 41 01 02 57 36 40 01 05 61 36  // ....V6A..W6@..a6
    40D0: FF FF 00 80 01 05 97 36 00 00 00 00 01 05 96 36  // .......6.......6
    40E0: 00 00 00 00 4A 25 48 00 01 44 18 04 0D 05 B1 36  // ....J%H..D.....6
    40F0: 08 00 00 00 43 57 04 5C 05 B6 36 00 FF FF FF C6  // ....CW.\..6.....
    4100: 00 09 00 07 05 C0 36 FE FF FF FF 03 05 41 50 C3  // ......6......AP.
    4110: 00 00 4A 05 A3 36 02 00 00 00 49 54 04 51 14 33  // ..J..6....IT.Q.3
    4120: 05 41 01 00 00 00 3E 05 41 00 00 00 00 49 36 04  // .A....>.A....I6.
    4130: 43 93 04 07 05 B1 36 FF FE FF FF 02 05 00 80 19  // C.....6.........
    4140: 00 00 02 05 01 00 00 00 00 02 05 02 00 00 00 00  // ................
    4150: 02 05 03 00 00 00 00 02 05 04 00 00 00 00 02 05  // ................
    4160: 05 00 00 00 00 02 05 06 00 00 00 00 43 10 00 5B  // ............C..[
    4170: 4B 00 01 01 00 00 37 00 00 42 21 00 63 00 1F 00  // K.....7..B!.c...
    4180: 63 01 39 00 63 03 3F 00 63 02 45 00 5A 5A 5B 03  // c.9.c.?.c.E.ZZ[.
    4190: 05 40 00 00 05 04 2D 19 40 00 15 05 40 02 01 02  // .@....-.@...@...
    41A0: 0C 00 40 02 00 00 0D 00 5B 02 00 00 E3 0D 5B 02  // ..@.....[.....[.
    41B0: 00 00 E7 0D 5B 02 00 00 E8 0D 5B 00 41 54 4F 4D  // ....[.....[.ATOM
    41C0: 5F 44 41 54 41 5F 54 41 42 4C 45 5F 45 4E 44 00  // _DATA_TABLE_END.
    41D0: 00 00 00 00 00 00 00 00 00 00 00 00 00 00 00 00  // ................
    41E0: 00 00 00 00 00 00 00 00 00 00 00 00 00 00 00 00  // ................
    41F0: 00 00 00 00 00 00 00 00 00 00 00 00 00 00 00 00  // ................
    4200: 00 00 00 00 00 00 00 00 00 00 00 00 00 00 00 00  // ................
    4210: 00 00 00 00 00 00 00 00 00 00 00 00 00 00 00 00  // ................
    4220: 00 00 00 00 00 00 00 00 00 00 00 00 00 00 00 00  // ................
    4230: 00 00 00 00 00 00 00 00 00 00 00 00 00 00 00 00  // ................
    4240: 00 00 00 00 00 00 00 00 00 00 00 00 00 00 00 00  // ................
    4250: 00 00 00 00 00 00 00 00 00 00 00 00 00 00 00 00  // ................
    4260: 00 00 00 00 00 00 00 00 00 00 00 00 00 00 00 00  // ................
    4270: 00 00 00 00 00 00 00 00 00 00 00 00 00 00 00 00  // ................
    4280: 00 00 00 00                                      // ....
