/*
 * Intel ACPI Component Architecture
 * AML/ASL+ Disassembler version 20240322 (64-bit version)
 * Copyright (c) 2000 - 2023 Intel Corporation
 * 
 * Disassembly of ./encoded/uefi.dat
 *
 * ACPI Data Table [UEFI]
 *
 * Format: [HexOffset DecimalOffset ByteLength]  FieldName : FieldValue (in hex)
 */

[000h 0000 004h]                   Signature : "UEFI"    [UEFI Boot Optimization Table]
[004h 0004 004h]                Table Length : 00000236
[008h 0008 001h]                    Revision : 01
[009h 0009 001h]                    Checksum : F1
[00Ah 0010 006h]                      Oem ID : "LENOVO"
[010h 0016 008h]                Oem Table ID : "CB-01   "
[018h 0024 004h]                Oem Revision : 00000001
[01Ch 0028 004h]             Asl Compiler ID : "ACPI"
[020h 0032 004h]       Asl Compiler Revision : 00040000

[024h 0036 010h]             UUID Identifier : 9D4BF935-A674-4710-BA02-BF0AA1758C7B
[034h 0052 002h]                 Data Offset : 0036

Raw Table Data: Length 566 (0x236)

    0000: 55 45 46 49 36 02 00 00 01 F1 4C 45 4E 4F 56 4F  // UEFI6.....LENOVO
    0010: 43 42 2D 30 31 20 20 20 01 00 00 00 41 43 50 49  // CB-01   ....ACPI
    0020: 00 00 04 00 35 F9 4B 9D 74 A6 10 47 BA 02 BF 0A  // ....5.K.t..G....
    0030: A1 75 8C 7B 36 00 24 42 56 44 54 24 00 00 00 24  // .u.{6.$BVDT$...$
    0040: 00 00 00 24 51 43 43 4E 31 37 57 57 5F 51 00 00  // ...$QCCN17WW_Q..
    0050: 00 00 00 00 00 00 00 00 00 00 00 00 24 4C 65 67  // ............$Leg
    0060: 69 6F 6E 20 47 6F 20 53 20 38 41 52 50 31 00 00  // ion Go S 8ARP1..
    0070: 00 00 00 00 00 00 24 30 35 2E 34 34 2E 33 30 00  // ......$05.44.30.
    0080: 00 00 00 00 00 00 00 00 00 00 00 00 00 00 00 00  // ................
    0090: 00 00 00 00 00 00 00 00 00 00 00 00 FF FF FF FF  // ................
    00A0: FF FF FF FF FF FF FF FF FF FF FF FF FF FF FF FF  // ................
    00B0: FF FF FF FF FF FF FF FF FF FF FF FF FF FF FF FF  // ................
    00C0: FF FF FF FF FF FF FF FF FF FF FF FF FF FF FF FF  // ................
    00D0: FF FF FF FF FF FF FF FF FF FF FF FF FF FF FF FF  // ................
    00E0: FF FF FF FF FF FF FF FF FF FF FF FF FF FF FF FF  // ................
    00F0: FF FF FF FF FF FF FF FF FF FF FF FF FF FF FF FF  // ................
    0100: FF FF FF FF FF FF FF FF FF FF FF FF FF FF FF FF  // ................
    0110: FF FF FF FF FF FF FF FF FF FF FF FF FF FF FF FF  // ................
    0120: FF FF FF FF FF FF FF FF FF FF FF FF FF FF FF FF  // ................
    0130: FF FF FF FF FF FF FF FF FF FF FF FF FF FF FF FF  // ................
    0140: FF FF FF FF FF FF FF FF FF FF FF FF FF FF FF FF  // ................
    0150: FF FF FF FF FF FF FF FF FF FF FF FF FF FF FF FF  // ................
    0160: FF FF FF FF FF 24 42 4D 45 24 00 D0 F6 01 00 10  // .....$BME$......
    0170: 00 00 24 00 00 00 02 00 00 00 00 24 00 FF FF FF  // ..$........$....
    0180: FF FF FF FF FF 24 5F 4D 53 43 5F 56 45 52 3D 40  // .....$_MSC_VER=@
    0190: 06 24 52 44 41 54 45 25 02 11 24 45 53 52 54 17  // .$RDATE%..$ESRT.
    01A0: 40 30 71 1A E6 A4 36 74 B5 07 4C B1 E1 76 1F 40  // @0q...6t..L..v.@
    01B0: D3 58 CE 8B 01 00 00 24 45 4E 44 4F 46 42 56 44  // .X.....$ENDOFBVD
    01C0: 54 FF FF FF FF FF FF FF FF FF FF FF FF FF FF FF  // T...............
    01D0: FF FF FF FF FF FF FF FF FF FF FF FF FF FF FF FF  // ................
    01E0: FF FF FF FF FF FF FF FF FF FF FF FF FF FF FF FF  // ................
    01F0: FF FF FF FF FF FF FF FF FF FF FF FF FF FF FF FF  // ................
    0200: FF FF FF FF FF FF FF FF FF FF FF FF FF FF FF FF  // ................
    0210: FF FF FF FF FF FF FF FF FF FF FF FF FF FF FF FF  // ................
    0220: FF FF FF FF FF FF FF FF FF FF FF FF FF FF FF FF  // ................
    0230: FF FF FF FF FF FF                                // ......
