/*
 * Intel ACPI Component Architecture
 * AML/ASL+ Disassembler version 20240322 (64-bit version)
 * Copyright (c) 2000 - 2023 Intel Corporation
 * 
 * Disassembly of ./encoded/crat.dat
 *
 * ACPI Data Table [CRAT]
 *
 * Format: [HexOffset DecimalOffset ByteLength]  FieldName : FieldValue (in hex)
 */

[000h 0000 004h]                   Signature : "CRAT"    
[004h 0004 004h]                Table Length : 00000EE8
[008h 0008 001h]                    Revision : 01
[009h 0009 001h]                    Checksum : 72
[00Ah 0010 006h]                      Oem ID : "AMD"
[010h 0016 008h]                Oem Table ID : "AmdTable"
[018h 0024 004h]                Oem Revision : 00000001
[01Ch 0028 004h]             Asl Compiler ID : "AMD "
[020h 0032 004h]       Asl Compiler Revision : 00000001


**** Unknown ACPI table signature [CRAT]


Raw Table Data: Length 3816 (0xEE8)

    0000: 43 52 41 54 E8 0E 00 00 01 72 41 4D 44 00 00 00  // CRAT.....rAMD...
    0010: 41 6D 64 54 61 62 6C 65 01 00 00 00 41 4D 44 20  // AmdTable....AMD 
    0020: 01 00 00 00 3C 00 00 00 01 00 00 00 00 00 00 00  // ....<...........
    0030: 00 28 00 00 05 00 00 00 00 00 00 00 00 00 00 00  // .(..............
    0040: 10 00 00 00 00 00 00 00 00 00 00 00 04 00 00 00  // ................
    0050: 00 00 00 00 00 00 00 00 01 28 00 00 01 00 00 00  // .........(......
    0060: 00 00 00 00 00 00 00 00 00 00 00 00 00 00 00 A0  // ................
    0070: 00 00 00 00 40 00 00 00 00 00 00 00 00 00 00 00  // ....@...........
    0080: 01 28 00 00 01 00 00 00 00 00 00 00 00 00 00 00  // .(..............
    0090: 01 00 00 00 00 00 00 60 03 00 00 00 40 00 00 00  // .......`....@...
    00A0: 00 00 00 00 00 00 00 00 02 40 00 00 0B 00 00 00  // .........@......
    00B0: 00 00 00 00 03 00 00 00 00 00 00 00 00 00 00 00  // ................
    00C0: 00 00 00 00 00 00 00 00 00 00 00 00 00 00 00 00  // ................
    00D0: 00 00 00 00 20 00 00 00 01 01 40 00 08 00 01 00  // .... .....@.....
    00E0: 00 00 00 00 00 00 00 00 02 40 00 00 0D 00 00 00  // .........@......
    00F0: 00 00 00 00 03 00 00 00 00 00 00 00 00 00 00 00  // ................
    0100: 00 00 00 00 00 00 00 00 00 00 00 00 00 00 00 00  // ................
    0110: 00 00 00 00 20 00 00 00 01 01 40 00 08 00 01 00  // .... .....@.....
    0120: 00 00 00 00 00 00 00 00 02 40 00 00 0F 00 00 00  // .........@......
    0130: 00 00 00 00 03 00 00 00 00 00 00 00 00 00 00 00  // ................
    0140: 00 00 00 00 00 00 00 00 00 00 00 00 00 00 00 00  // ................
    0150: 00 00 00 00 00 04 00 00 02 01 40 00 08 02 01 00  // ..........@.....
    0160: 00 00 00 00 00 00 00 00 02 40 00 00 0F 00 00 00  // .........@......
    0170: 00 00 00 00 FF 00 00 00 00 00 00 00 00 00 00 00  // ................
    0180: 00 00 00 00 00 00 00 00 00 00 00 00 00 00 00 00  // ................
    0190: 00 00 00 00 00 40 00 00 03 01 40 00 10 00 01 00  // .....@....@.....
    01A0: 00 00 00 00 00 00 00 00 02 40 00 00 0B 00 00 00  // .........@......
    01B0: 02 00 00 00 0C 00 00 00 00 00 00 00 00 00 00 00  // ................
    01C0: 00 00 00 00 00 00 00 00 00 00 00 00 00 00 00 00  // ................
    01D0: 00 00 00 00 20 00 00 00 01 01 40 00 08 00 01 00  // .... .....@.....
    01E0: 00 00 00 00 00 00 00 00 02 40 00 00 0D 00 00 00  // .........@......
    01F0: 02 00 00 00 0C 00 00 00 00 00 00 00 00 00 00 00  // ................
    0200: 00 00 00 00 00 00 00 00 00 00 00 00 00 00 00 00  // ................
    0210: 00 00 00 00 20 00 00 00 01 01 40 00 08 00 01 00  // .... .....@.....
    0220: 00 00 00 00 00 00 00 00 02 40 00 00 0F 00 00 00  // .........@......
    0230: 02 00 00 00 0C 00 00 00 00 00 00 00 00 00 00 00  // ................
    0240: 00 00 00 00 00 00 00 00 00 00 00 00 00 00 00 00  // ................
    0250: 00 00 00 00 00 04 00 00 02 01 40 00 08 02 01 00  // ..........@.....
    0260: 00 00 00 00 00 00 00 00 02 40 00 00 0B 00 00 00  // .........@......
    0270: 04 00 00 00 30 00 00 00 00 00 00 00 00 00 00 00  // ....0...........
    0280: 00 00 00 00 00 00 00 00 00 00 00 00 00 00 00 00  // ................
    0290: 00 00 00 00 20 00 00 00 01 01 40 00 08 00 01 00  // .... .....@.....
    02A0: 00 00 00 00 00 00 00 00 02 40 00 00 0D 00 00 00  // .........@......
    02B0: 04 00 00 00 30 00 00 00 00 00 00 00 00 00 00 00  // ....0...........
    02C0: 00 00 00 00 00 00 00 00 00 00 00 00 00 00 00 00  // ................
    02D0: 00 00 00 00 20 00 00 00 01 01 40 00 08 00 01 00  // .... .....@.....
    02E0: 00 00 00 00 00 00 00 00 02 40 00 00 0F 00 00 00  // .........@......
    02F0: 04 00 00 00 30 00 00 00 00 00 00 00 00 00 00 00  // ....0...........
    0300: 00 00 00 00 00 00 00 00 00 00 00 00 00 00 00 00  // ................
    0310: 00 00 00 00 00 04 00 00 02 01 40 00 08 02 01 00  // ..........@.....
    0320: 00 00 00 00 00 00 00 00 02 40 00 00 0B 00 00 00  // .........@......
    0330: 06 00 00 00 C0 00 00 00 00 00 00 00 00 00 00 00  // ................
    0340: 00 00 00 00 00 00 00 00 00 00 00 00 00 00 00 00  // ................
    0350: 00 00 00 00 20 00 00 00 01 01 40 00 08 00 01 00  // .... .....@.....
    0360: 00 00 00 00 00 00 00 00 02 40 00 00 0D 00 00 00  // .........@......
    0370: 06 00 00 00 C0 00 00 00 00 00 00 00 00 00 00 00  // ................
    0380: 00 00 00 00 00 00 00 00 00 00 00 00 00 00 00 00  // ................
    0390: 00 00 00 00 20 00 00 00 01 01 40 00 08 00 01 00  // .... .....@.....
    03A0: 00 00 00 00 00 00 00 00 02 40 00 00 0F 00 00 00  // .........@......
    03B0: 06 00 00 00 C0 00 00 00 00 00 00 00 00 00 00 00  // ................
    03C0: 00 00 00 00 00 00 00 00 00 00 00 00 00 00 00 00  // ................
    03D0: 00 00 00 00 00 04 00 00 02 01 40 00 08 02 01 00  // ..........@.....
    03E0: 00 00 00 00 00 00 00 00 02 40 00 00 0B 00 00 00  // .........@......
    03F0: 08 00 00 00 00 03 00 00 00 00 00 00 00 00 00 00  // ................
    0400: 00 00 00 00 00 00 00 00 00 00 00 00 00 00 00 00  // ................
    0410: 00 00 00 00 20 00 00 00 01 01 40 00 08 00 01 00  // .... .....@.....
    0420: 00 00 00 00 00 00 00 00 02 40 00 00 0D 00 00 00  // .........@......
    0430: 08 00 00 00 00 03 00 00 00 00 00 00 00 00 00 00  // ................
    0440: 00 00 00 00 00 00 00 00 00 00 00 00 00 00 00 00  // ................
    0450: 00 00 00 00 20 00 00 00 01 01 40 00 08 00 01 00  // .... .....@.....
    0460: 00 00 00 00 00 00 00 00 02 40 00 00 0F 00 00 00  // .........@......
    0470: 08 00 00 00 00 03 00 00 00 00 00 00 00 00 00 00  // ................
    0480: 00 00 00 00 00 00 00 00 00 00 00 00 00 00 00 00  // ................
    0490: 00 00 00 00 00 04 00 00 02 01 40 00 08 02 01 00  // ..........@.....
    04A0: 00 00 00 00 00 00 00 00 02 40 00 00 0B 00 00 00  // .........@......
    04B0: 0A 00 00 00 00 0C 00 00 00 00 00 00 00 00 00 00  // ................
    04C0: 00 00 00 00 00 00 00 00 00 00 00 00 00 00 00 00  // ................
    04D0: 00 00 00 00 20 00 00 00 01 01 40 00 08 00 01 00  // .... .....@.....
    04E0: 00 00 00 00 00 00 00 00 02 40 00 00 0D 00 00 00  // .........@......
    04F0: 0A 00 00 00 00 0C 00 00 00 00 00 00 00 00 00 00  // ................
    0500: 00 00 00 00 00 00 00 00 00 00 00 00 00 00 00 00  // ................
    0510: 00 00 00 00 20 00 00 00 01 01 40 00 08 00 01 00  // .... .....@.....
    0520: 00 00 00 00 00 00 00 00 02 40 00 00 0F 00 00 00  // .........@......
    0530: 0A 00 00 00 00 0C 00 00 00 00 00 00 00 00 00 00  // ................
    0540: 00 00 00 00 00 00 00 00 00 00 00 00 00 00 00 00  // ................
    0550: 00 00 00 00 00 04 00 00 02 01 40 00 08 02 01 00  // ..........@.....
    0560: 00 00 00 00 00 00 00 00 02 40 00 00 0B 00 00 00  // .........@......
    0570: 0C 00 00 00 00 30 00 00 00 00 00 00 00 00 00 00  // .....0..........
    0580: 00 00 00 00 00 00 00 00 00 00 00 00 00 00 00 00  // ................
    0590: 00 00 00 00 20 00 00 00 01 01 40 00 08 00 01 00  // .... .....@.....
    05A0: 00 00 00 00 00 00 00 00 02 40 00 00 0D 00 00 00  // .........@......
    05B0: 0C 00 00 00 00 30 00 00 00 00 00 00 00 00 00 00  // .....0..........
    05C0: 00 00 00 00 00 00 00 00 00 00 00 00 00 00 00 00  // ................
    05D0: 00 00 00 00 20 00 00 00 01 01 40 00 08 00 01 00  // .... .....@.....
    05E0: 00 00 00 00 00 00 00 00 02 40 00 00 0F 00 00 00  // .........@......
    05F0: 0C 00 00 00 00 30 00 00 00 00 00 00 00 00 00 00  // .....0..........
    0600: 00 00 00 00 00 00 00 00 00 00 00 00 00 00 00 00  // ................
    0610: 00 00 00 00 00 04 00 00 02 01 40 00 08 02 01 00  // ..........@.....
    0620: 00 00 00 00 00 00 00 00 02 40 00 00 0B 00 00 00  // .........@......
    0630: 0E 00 00 00 00 C0 00 00 00 00 00 00 00 00 00 00  // ................
    0640: 00 00 00 00 00 00 00 00 00 00 00 00 00 00 00 00  // ................
    0650: 00 00 00 00 20 00 00 00 01 01 40 00 08 00 01 00  // .... .....@.....
    0660: 00 00 00 00 00 00 00 00 02 40 00 00 0D 00 00 00  // .........@......
    0670: 0E 00 00 00 00 C0 00 00 00 00 00 00 00 00 00 00  // ................
    0680: 00 00 00 00 00 00 00 00 00 00 00 00 00 00 00 00  // ................
    0690: 00 00 00 00 20 00 00 00 01 01 40 00 08 00 01 00  // .... .....@.....
    06A0: 00 00 00 00 00 00 00 00 02 40 00 00 0F 00 00 00  // .........@......
    06B0: 0E 00 00 00 00 C0 00 00 00 00 00 00 00 00 00 00  // ................
    06C0: 00 00 00 00 00 00 00 00 00 00 00 00 00 00 00 00  // ................
    06D0: 00 00 00 00 00 04 00 00 02 01 40 00 08 02 01 00  // ..........@.....
    06E0: 00 00 00 00 00 00 00 00 03 40 00 00 0B 00 00 00  // .........@......
    06F0: 00 00 00 00 03 00 00 00 00 00 00 00 00 00 00 00  // ................
    0700: 00 00 00 00 00 00 00 00 00 00 00 00 00 00 00 00  // ................
    0710: 00 00 00 00 01 00 00 00 FF 48 00 00 FF 48 00 00  // .........H...H..
    0720: 0F 48 00 00 00 00 00 00 03 40 00 00 0D 00 00 00  // .H.......@......
    0730: 00 00 00 00 03 00 00 00 00 00 00 00 00 00 00 00  // ................
    0740: 00 00 00 00 00 00 00 00 00 00 00 00 00 00 00 00  // ................
    0750: 00 00 00 00 01 00 00 00 00 00 FF 40 00 00 FF 40  // ...........@...@
    0760: 00 00 0F 40 00 00 00 00 03 40 00 00 AB 00 00 00  // ...@.....@......
    0770: 00 00 00 00 03 00 00 00 00 00 00 00 00 00 00 00  // ................
    0780: 00 00 00 00 00 00 00 00 00 00 00 00 00 00 00 00  // ................
    0790: 00 00 00 00 02 00 00 00 05 0C 00 00 08 0C 00 00  // ................
    07A0: FF 48 00 00 00 00 00 00 03 40 00 00 AD 00 00 00  // .H.......@......
    07B0: 00 00 00 00 03 00 00 00 00 00 00 00 00 00 00 00  // ................
    07C0: 00 00 00 00 00 00 00 00 00 00 00 00 00 00 00 00  // ................
    07D0: 00 00 00 00 02 00 00 00 00 00 02 02 00 00 04 02  // ................
    07E0: 00 00 00 00 00 00 00 00 03 40 00 00 0B 00 00 00  // .........@......
    07F0: 02 00 00 00 0C 00 00 00 00 00 00 00 00 00 00 00  // ................
    0800: 00 00 00 00 00 00 00 00 00 00 00 00 00 00 00 00  // ................
    0810: 00 00 00 00 01 00 00 00 FF 48 00 00 FF 48 00 00  // .........H...H..
    0820: 0F 48 00 00 00 00 00 00 03 40 00 00 0D 00 00 00  // .H.......@......
    0830: 02 00 00 00 0C 00 00 00 00 00 00 00 00 00 00 00  // ................
    0840: 00 00 00 00 00 00 00 00 00 00 00 00 00 00 00 00  // ................
    0850: 00 00 00 00 01 00 00 00 00 00 FF 40 00 00 FF 40  // ...........@...@
    0860: 00 00 0F 40 00 00 00 00 03 40 00 00 AB 00 00 00  // ...@.....@......
    0870: 02 00 00 00 0C 00 00 00 00 00 00 00 00 00 00 00  // ................
    0880: 00 00 00 00 00 00 00 00 00 00 00 00 00 00 00 00  // ................
    0890: 00 00 00 00 02 00 00 00 05 0C 00 00 08 0C 00 00  // ................
    08A0: FF 48 00 00 00 00 00 00 03 40 00 00 AD 00 00 00  // .H.......@......
    08B0: 02 00 00 00 0C 00 00 00 00 00 00 00 00 00 00 00  // ................
    08C0: 00 00 00 00 00 00 00 00 00 00 00 00 00 00 00 00  // ................
    08D0: 00 00 00 00 02 00 00 00 00 00 02 02 00 00 04 02  // ................
    08E0: 00 00 00 00 00 00 00 00 03 40 00 00 0B 00 00 00  // .........@......
    08F0: 04 00 00 00 30 00 00 00 00 00 00 00 00 00 00 00  // ....0...........
    0900: 00 00 00 00 00 00 00 00 00 00 00 00 00 00 00 00  // ................
    0910: 00 00 00 00 01 00 00 00 FF 48 00 00 FF 48 00 00  // .........H...H..
    0920: 0F 48 00 00 00 00 00 00 03 40 00 00 0D 00 00 00  // .H.......@......
    0930: 04 00 00 00 30 00 00 00 00 00 00 00 00 00 00 00  // ....0...........
    0940: 00 00 00 00 00 00 00 00 00 00 00 00 00 00 00 00  // ................
    0950: 00 00 00 00 01 00 00 00 00 00 FF 40 00 00 FF 40  // ...........@...@
    0960: 00 00 0F 40 00 00 00 00 03 40 00 00 AB 00 00 00  // ...@.....@......
    0970: 04 00 00 00 30 00 00 00 00 00 00 00 00 00 00 00  // ....0...........
    0980: 00 00 00 00 00 00 00 00 00 00 00 00 00 00 00 00  // ................
    0990: 00 00 00 00 02 00 00 00 05 0C 00 00 08 0C 00 00  // ................
    09A0: FF 48 00 00 00 00 00 00 03 40 00 00 AD 00 00 00  // .H.......@......
    09B0: 04 00 00 00 30 00 00 00 00 00 00 00 00 00 00 00  // ....0...........
    09C0: 00 00 00 00 00 00 00 00 00 00 00 00 00 00 00 00  // ................
    09D0: 00 00 00 00 02 00 00 00 00 00 02 02 00 00 04 02  // ................
    09E0: 00 00 00 00 00 00 00 00 03 40 00 00 0B 00 00 00  // .........@......
    09F0: 06 00 00 00 C0 00 00 00 00 00 00 00 00 00 00 00  // ................
    0A00: 00 00 00 00 00 00 00 00 00 00 00 00 00 00 00 00  // ................
    0A10: 00 00 00 00 01 00 00 00 FF 48 00 00 FF 48 00 00  // .........H...H..
    0A20: 0F 48 00 00 00 00 00 00 03 40 00 00 0D 00 00 00  // .H.......@......
    0A30: 06 00 00 00 C0 00 00 00 00 00 00 00 00 00 00 00  // ................
    0A40: 00 00 00 00 00 00 00 00 00 00 00 00 00 00 00 00  // ................
    0A50: 00 00 00 00 01 00 00 00 00 00 FF 40 00 00 FF 40  // ...........@...@
    0A60: 00 00 0F 40 00 00 00 00 03 40 00 00 AB 00 00 00  // ...@.....@......
    0A70: 06 00 00 00 C0 00 00 00 00 00 00 00 00 00 00 00  // ................
    0A80: 00 00 00 00 00 00 00 00 00 00 00 00 00 00 00 00  // ................
    0A90: 00 00 00 00 02 00 00 00 05 0C 00 00 08 0C 00 00  // ................
    0AA0: FF 48 00 00 00 00 00 00 03 40 00 00 AD 00 00 00  // .H.......@......
    0AB0: 06 00 00 00 C0 00 00 00 00 00 00 00 00 00 00 00  // ................
    0AC0: 00 00 00 00 00 00 00 00 00 00 00 00 00 00 00 00  // ................
    0AD0: 00 00 00 00 02 00 00 00 00 00 02 02 00 00 04 02  // ................
    0AE0: 00 00 00 00 00 00 00 00 03 40 00 00 0B 00 00 00  // .........@......
    0AF0: 08 00 00 00 00 03 00 00 00 00 00 00 00 00 00 00  // ................
    0B00: 00 00 00 00 00 00 00 00 00 00 00 00 00 00 00 00  // ................
    0B10: 00 00 00 00 01 00 00 00 FF 48 00 00 FF 48 00 00  // .........H...H..
    0B20: 0F 48 00 00 00 00 00 00 03 40 00 00 0D 00 00 00  // .H.......@......
    0B30: 08 00 00 00 00 03 00 00 00 00 00 00 00 00 00 00  // ................
    0B40: 00 00 00 00 00 00 00 00 00 00 00 00 00 00 00 00  // ................
    0B50: 00 00 00 00 01 00 00 00 00 00 FF 40 00 00 FF 40  // ...........@...@
    0B60: 00 00 0F 40 00 00 00 00 03 40 00 00 AB 00 00 00  // ...@.....@......
    0B70: 08 00 00 00 00 03 00 00 00 00 00 00 00 00 00 00  // ................
    0B80: 00 00 00 00 00 00 00 00 00 00 00 00 00 00 00 00  // ................
    0B90: 00 00 00 00 02 00 00 00 05 0C 00 00 08 0C 00 00  // ................
    0BA0: FF 48 00 00 00 00 00 00 03 40 00 00 AD 00 00 00  // .H.......@......
    0BB0: 08 00 00 00 00 03 00 00 00 00 00 00 00 00 00 00  // ................
    0BC0: 00 00 00 00 00 00 00 00 00 00 00 00 00 00 00 00  // ................
    0BD0: 00 00 00 00 02 00 00 00 00 00 02 02 00 00 04 02  // ................
    0BE0: 00 00 00 00 00 00 00 00 03 40 00 00 0B 00 00 00  // .........@......
    0BF0: 0A 00 00 00 00 0C 00 00 00 00 00 00 00 00 00 00  // ................
    0C00: 00 00 00 00 00 00 00 00 00 00 00 00 00 00 00 00  // ................
    0C10: 00 00 00 00 01 00 00 00 FF 48 00 00 FF 48 00 00  // .........H...H..
    0C20: 0F 48 00 00 00 00 00 00 03 40 00 00 0D 00 00 00  // .H.......@......
    0C30: 0A 00 00 00 00 0C 00 00 00 00 00 00 00 00 00 00  // ................
    0C40: 00 00 00 00 00 00 00 00 00 00 00 00 00 00 00 00  // ................
    0C50: 00 00 00 00 01 00 00 00 00 00 FF 40 00 00 FF 40  // ...........@...@
    0C60: 00 00 0F 40 00 00 00 00 03 40 00 00 AB 00 00 00  // ...@.....@......
    0C70: 0A 00 00 00 00 0C 00 00 00 00 00 00 00 00 00 00  // ................
    0C80: 00 00 00 00 00 00 00 00 00 00 00 00 00 00 00 00  // ................
    0C90: 00 00 00 00 02 00 00 00 05 0C 00 00 08 0C 00 00  // ................
    0CA0: FF 48 00 00 00 00 00 00 03 40 00 00 AD 00 00 00  // .H.......@......
    0CB0: 0A 00 00 00 00 0C 00 00 00 00 00 00 00 00 00 00  // ................
    0CC0: 00 00 00 00 00 00 00 00 00 00 00 00 00 00 00 00  // ................
    0CD0: 00 00 00 00 02 00 00 00 00 00 02 02 00 00 04 02  // ................
    0CE0: 00 00 00 00 00 00 00 00 03 40 00 00 0B 00 00 00  // .........@......
    0CF0: 0C 00 00 00 00 30 00 00 00 00 00 00 00 00 00 00  // .....0..........
    0D00: 00 00 00 00 00 00 00 00 00 00 00 00 00 00 00 00  // ................
    0D10: 00 00 00 00 01 00 00 00 FF 48 00 00 FF 48 00 00  // .........H...H..
    0D20: 0F 48 00 00 00 00 00 00 03 40 00 00 0D 00 00 00  // .H.......@......
    0D30: 0C 00 00 00 00 30 00 00 00 00 00 00 00 00 00 00  // .....0..........
    0D40: 00 00 00 00 00 00 00 00 00 00 00 00 00 00 00 00  // ................
    0D50: 00 00 00 00 01 00 00 00 00 00 FF 40 00 00 FF 40  // ...........@...@
    0D60: 00 00 0F 40 00 00 00 00 03 40 00 00 AB 00 00 00  // ...@.....@......
    0D70: 0C 00 00 00 00 30 00 00 00 00 00 00 00 00 00 00  // .....0..........
    0D80: 00 00 00 00 00 00 00 00 00 00 00 00 00 00 00 00  // ................
    0D90: 00 00 00 00 02 00 00 00 05 0C 00 00 08 0C 00 00  // ................
    0DA0: FF 48 00 00 00 00 00 00 03 40 00 00 AD 00 00 00  // .H.......@......
    0DB0: 0C 00 00 00 00 30 00 00 00 00 00 00 00 00 00 00  // .....0..........
    0DC0: 00 00 00 00 00 00 00 00 00 00 00 00 00 00 00 00  // ................
    0DD0: 00 00 00 00 02 00 00 00 00 00 02 02 00 00 04 02  // ................
    0DE0: 00 00 00 00 00 00 00 00 03 40 00 00 0B 00 00 00  // .........@......
    0DF0: 0E 00 00 00 00 C0 00 00 00 00 00 00 00 00 00 00  // ................
    0E00: 00 00 00 00 00 00 00 00 00 00 00 00 00 00 00 00  // ................
    0E10: 00 00 00 00 01 00 00 00 FF 48 00 00 FF 48 00 00  // .........H...H..
    0E20: 0F 48 00 00 00 00 00 00 03 40 00 00 0D 00 00 00  // .H.......@......
    0E30: 0E 00 00 00 00 C0 00 00 00 00 00 00 00 00 00 00  // ................
    0E40: 00 00 00 00 00 00 00 00 00 00 00 00 00 00 00 00  // ................
    0E50: 00 00 00 00 01 00 00 00 00 00 FF 40 00 00 FF 40  // ...........@...@
    0E60: 00 00 0F 40 00 00 00 00 03 40 00 00 AB 00 00 00  // ...@.....@......
    0E70: 0E 00 00 00 00 C0 00 00 00 00 00 00 00 00 00 00  // ................
    0E80: 00 00 00 00 00 00 00 00 00 00 00 00 00 00 00 00  // ................
    0E90: 00 00 00 00 02 00 00 00 05 0C 00 00 08 0C 00 00  // ................
    0EA0: FF 48 00 00 00 00 00 00 03 40 00 00 AD 00 00 00  // .H.......@......
    0EB0: 0E 00 00 00 00 C0 00 00 00 00 00 00 00 00 00 00  // ................
    0EC0: 00 00 00 00 00 00 00 00 00 00 00 00 00 00 00 00  // ................
    0ED0: 00 00 00 00 02 00 00 00 00 00 02 02 00 00 04 02  // ................
    0EE0: 00 00 00 00 00 00 00 00                          // ........
